(dp0
Vhttp://www.racetoriga.com/
p1
(lp2
(VHitchhiking competitions
p3
F1289489507.254142
VSocket Error: 'Name or service not known'
p4
tp5
a(VHitchhiking competitions
p6
F1289527634.7313521
VSocket Error: 'Name or service not known'
p7
tp8
a(VHitchhiking competitions
p9
F1289614029.9792659
VSocket Error: 'Name or service not known'
p10
tp11
a(VHitchhiking competitions
p12
F1289700464.6329801
VSocket Error: 'Name or service not known'
p13
tp14
a(VHitchhiking competitions
p15
F1289786795.774029
VSocket Error: 'Name or service not known'
p16
tp17
a(VHitchhiking competitions
p18
F1289873279.686554
VSocket Error: 'Name or service not known'
p19
tp20
a(VHitchhiking competitions
p21
F1289959652.491106
VSocket Error: 'Name or service not known'
p22
tp23
a(VHitchhiking competitions
p24
F1290045976.9982481
VSocket Error: 'Name or service not known'
p25
tp26
a(VHitchhiking competitions
p27
F1290132686.582859
VSocket Error: 'Name or service not known'
p28
tp29
a(VHitchhiking competitions
p30
F1290219154.110898
VSocket Error: 'Name or service not known'
p31
tp32
a(VHitchhiking competitions
p33
F1290305511.899334
VSocket Error: 'Name or service not known'
p34
tp35
asVhttp://hitchwiki.org/en/Abgefahren_e.V
p36
(lp37
(V\u4ff1\u4e50\u90e8
p38
F1289489510.1739371
S'404 Not Found'
p39
tp40
a(V\u4ff1\u4e50\u90e8
p41
F1289527635.8693521
S'404 Not Found'
p42
tp43
a(V\u4ff1\u4e50\u90e8
p44
F1289614031.313823
S'404 Not Found'
p45
tp46
a(V\u4ff1\u4e50\u90e8
p47
F1289700465.824307
S'404 Not Found'
p48
tp49
a(V\u4ff1\u4e50\u90e8
p50
F1289786797.2053919
S'404 Not Found'
p51
tp52
a(V\u4ff1\u4e50\u90e8
p53
F1289873280.764173
S'404 Not Found'
p54
tp55
a(V\u4ff1\u4e50\u90e8
p56
F1289959653.439697
S'404 Not Found'
p57
tp58
a(V\u4ff1\u4e50\u90e8
p59
F1290045978.121172
S'404 Not Found'
p60
tp61
a(V\u4ff1\u4e50\u90e8
p62
F1290132692.2299941
S'404 Not Found'
p63
tp64
a(V\u4ff1\u4e50\u90e8
p65
F1290219159.0053539
S'404 Not Found'
p66
tp67
a(V\u4ff1\u4e50\u90e8
p68
F1290305515.019079
S'404 Not Found'
p69
tp70
asVhttp://www.rahhala.net/en/
p71
(lp72
(V\u4f4f\u5bbf
p73
F1289489507.2454059
S'404 Not Found'
p74
tp75
a(V\u4f4f\u5bbf
p76
F1289527634.667424
S'404 Not Found'
p77
tp78
a(V\u4f4f\u5bbf
p79
F1289614029.9060359
S'404 Not Found'
p80
tp81
a(V\u4f4f\u5bbf
p82
F1289700464.602001
S'404 Not Found'
p83
tp84
a(V\u4f4f\u5bbf
p85
F1289786795.820564
S'404 Not Found'
p86
tp87
a(V\u4f4f\u5bbf
p88
F1289873279.70101
S'404 Not Found'
p89
tp90
a(V\u4f4f\u5bbf
p91
F1289959652.5354879
S'404 Not Found'
p92
tp93
a(V\u4f4f\u5bbf
p94
F1290045977.0533161
S'404 Not Found'
p95
tp96
a(V\u4f4f\u5bbf
p97
F1290132685.4752619
S'404 Not Found'
p98
tp99
a(V\u4f4f\u5bbf
p100
F1290219156.1073749
S'404 Not Found'
p101
tp102
a(V\u4f4f\u5bbf
p103
F1290305511.201205
S'404 Not Found'
p104
tp105
asVhttp://www.race2amsterdam.co.uk/
p106
(lp107
(g3
F1289489507.1414909
VSocket Error: 'Name or service not known'
p108
tp109
a(g6
F1289527634.616642
VSocket Error: 'Name or service not known'
p110
tp111
a(g9
F1289614029.849052
VSocket Error: 'Name or service not known'
p112
tp113
a(g12
F1289700464.5205071
VSocket Error: 'Name or service not known'
p114
tp115
a(g15
F1289786795.74686
VSocket Error: 'Name or service not known'
p116
tp117
a(g18
F1289873279.641479
VSocket Error: 'Name or service not known'
p118
tp119
a(g21
F1289959652.464592
VSocket Error: 'Name or service not known'
p120
tp121
a(g24
F1290045976.9887781
VSocket Error: 'Name or service not known'
p122
tp123
a(g27
F1290132685.132534
VSocket Error: 'Name or service not known'
p124
tp125
a(g30
F1290219153.7471311
VSocket Error: 'Name or service not known'
p126
tp127
a(g33
F1290305510.854713
VSocket Error: 'Name or service not known'
p128
tp129
asVhttp://www.lcd.org.uk/events/hitch/
p130
(lp131
(g3
F1289489508.202765
S'404 Not Found'
p132
tp133
a(g6
F1289527635.4512849
S'404 Not Found'
p134
tp135
a(g9
F1289614030.6282721
S'404 Not Found'
p136
tp137
a(g12
F1289700465.3970721
S'404 Not Found'
p138
tp139
a(g15
F1289786796.571974
S'404 Not Found'
p140
tp141
a(g18
F1289873280.474324
S'404 Not Found'
p142
tp143
a(g21
F1289959655.5359609
S'404 Not Found'
p144
tp145
a(g24
F1290045979.3511901
S'404 Not Found'
p146
tp147
a(g27
F1290132694.0492611
S'404 Not Found'
p148
tp149
a(g30
F1290219159.6857729
S'404 Not Found'
p150
tp151
a(g33
F1290305516.4915819
S'404 Not Found'
p152
tp153
asVhttp://abgefahren.hitchbase.com/DE/blogs/alex/20090213/just-hitching-rides-a-journey-eid-christmas
p154
(lp155
(V\u4e2d\u4e1c
p156
F1289489509.4681449
S'404 Not Found'
p157
tp158
a(V\u4e2d\u4e1c
p159
F1289527635.509764
S'404 Not Found'
p160
tp161
a(V\u4e2d\u4e1c
p162
F1289614030.6683741
S'404 Not Found'
p163
tp164
a(V\u4e2d\u4e1c
p165
F1289700465.604636
S'404 Not Found'
p166
tp167
a(V\u4e2d\u4e1c
p168
F1289786796.689157
S'404 Not Found'
p169
tp170
a(V\u4e2d\u4e1c
p171
F1289873279.818099
S'404 Not Found'
p172
tp173
a(V\u4e2d\u4e1c
p174
F1289959652.6533959
S'404 Not Found'
p175
tp176
a(V\u4e2d\u4e1c
p177
F1290045977.18347
S'404 Not Found'
p178
tp179
a(V\u4e2d\u4e1c
p180
F1290132687.4574809
S'404 Not Found'
p181
tp182
a(V\u4e2d\u4e1c
p183
F1290219157.241503
S'404 Not Found'
p184
tp185
a(V\u4e2d\u4e1c
p186
F1290305512.717243
S'404 Not Found'
p187
tp188
as.