(dp0
Vhttp://www.the789project.eu
p1
(lp2
(V789
p3
F1289489493.2126069
VSocket Error: 'Name or service not known'
p4
tp5
a(V789
p6
F1289527615.6606569
VSocket Error: 'Name or service not known'
p7
tp8
a(V789
p9
F1289614015.2271099
VSocket Error: 'Name or service not known'
p10
tp11
a(V789
p12
F1289700450.631289
VSocket Error: 'Name or service not known'
p13
tp14
a(V789
p15
F1289786781.8700621
VSocket Error: 'Name or service not known'
p16
tp17
a(V789
p18
F1289873260.107007
VSocket Error: 'Name or service not known'
p19
tp20
a(V789
p21
F1289959637.778878
VSocket Error: 'Name or service not known'
p22
tp23
a(V789
p24
F1290045956.0234449
VSocket Error: 'Name or service not known'
p25
tp26
a(V789
p27
F1290132659.9139719
VSocket Error: 'Name or service not known'
p28
tp29
a(V789
p30
F1290219139.673384
VSocket Error: 'Name or service not known'
p31
tp32
a(V789
p33
F1290305497.337203
VSocket Error: 'Name or service not known'
p34
tp35
as.