(dp0
Vhttp://autostop.org.ua
p1
(lp2
(V\u0423\u043a\u0440\u0430\u0438\u043d\u0441\u043a\u0430\u044f \u042d\u043b\u044c\u0431\u0430
p3
F1289489386.9277561
S'401 Authorization Required'
p4
tp5
a(V\u0423\u043a\u0440\u0430\u0438\u043d\u0441\u043a\u0430\u044f \u042d\u043b\u044c\u0431\u0430
p6
F1289527493.2939379
S'401 Authorization Required'
p7
tp8
a(V\u0423\u043a\u0440\u0430\u0438\u043d\u0441\u043a\u0430\u044f \u042d\u043b\u044c\u0431\u0430
p9
F1289613954.2105939
S'401 Authorization Required'
p10
tp11
a(V\u0423\u043a\u0440\u0430\u0438\u043d\u0441\u043a\u0430\u044f \u042d\u043b\u044c\u0431\u0430
p12
F1289700382.879389
S'401 Authorization Required'
p13
tp14
a(V\u0423\u043a\u0440\u0430\u0438\u043d\u0441\u043a\u0430\u044f \u042d\u043b\u044c\u0431\u0430
p15
F1289786683.6156819
S'401 Authorization Required'
p16
tp17
a(V\u0423\u043a\u0440\u0430\u0438\u043d\u0441\u043a\u0430\u044f \u042d\u043b\u044c\u0431\u0430
p18
F1289873166.2217209
S'401 Authorization Required'
p19
tp20
a(V\u0423\u043a\u0440\u0430\u0438\u043d\u0441\u043a\u0430\u044f \u042d\u043b\u044c\u0431\u0430
p21
F1289959514.5962181
S'401 Authorization Required'
p22
tp23
a(V\u0423\u043a\u0440\u0430\u0438\u043d\u0441\u043a\u0430\u044f \u042d\u043b\u044c\u0431\u0430
p24
F1290045844.8965261
S'401 Authorization Required'
p25
tp26
a(V\u0423\u043a\u0440\u0430\u0438\u043d\u0441\u043a\u0430\u044f \u042d\u043b\u044c\u0431\u0430
p27
F1290132546.6345861
S'401 Authorization Required'
p28
tp29
a(V\u0423\u043a\u0440\u0430\u0438\u043d\u0441\u043a\u0430\u044f \u042d\u043b\u044c\u0431\u0430
p30
F1290218999.8966899
S'401 Authorization Required'
p31
tp32
a(V\u0423\u043a\u0440\u0430\u0438\u043d\u0441\u043a\u0430\u044f \u042d\u043b\u044c\u0431\u0430
p33
F1290305380.5326581
S'401 Authorization Required'
p34
tp35
asVhttp://www.zoetermeer.nl/index.php?simaction=content&mediumid=18&pagid=1575&fontsize=13
p36
(lp37
(V\u0417\u0443\u0442\u0435\u0440\u043c\u0435\u0440
p38
F1289489385.558068
S'404 Not Found'
p39
tp40
a(V\u0417\u0443\u0442\u0435\u0440\u043c\u0435\u0440
p41
F1289527492.5441411
S'404 Not Found'
p42
tp43
a(V\u0417\u0443\u0442\u0435\u0440\u043c\u0435\u0440
p44
F1289613953.6239929
S'404 Not Found'
p45
tp46
a(V\u0417\u0443\u0442\u0435\u0440\u043c\u0435\u0440
p47
F1289700382.2862141
S'404 Not Found'
p48
tp49
a(V\u0417\u0443\u0442\u0435\u0440\u043c\u0435\u0440
p50
F1289786683.0189791
S'404 Not Found'
p51
tp52
a(V\u0417\u0443\u0442\u0435\u0440\u043c\u0435\u0440
p53
F1289873165.630425
S'404 Not Found'
p54
tp55
a(V\u0417\u0443\u0442\u0435\u0440\u043c\u0435\u0440
p56
F1289959513.9953671
S'404 Not Found'
p57
tp58
a(V\u0417\u0443\u0442\u0435\u0440\u043c\u0435\u0440
p59
F1290045844.2905059
S'404 Not Found'
p60
tp61
a(V\u0417\u0443\u0442\u0435\u0440\u043c\u0435\u0440
p62
F1290132545.9016349
S'404 Not Found'
p63
tp64
a(V\u0417\u0443\u0442\u0435\u0440\u043c\u0435\u0440
p65
F1290218995.7244771
S'404 Not Found'
p66
tp67
a(V\u0417\u0443\u0442\u0435\u0440\u043c\u0435\u0440
p68
F1290305377.0577221
S'404 Not Found'
p69
tp70
as.