(dp0
Vhttp://www.tesco.pl/sklepy-tesco/sklepy/wroclaw-bielany/rozkladjazdy-01.html
p1
(lp2
(VWroc\u0142aw
p3
F1289489586.637718
S'404 Not Found'
p4
tp5
a(VWroc\u0142aw
p6
F1289614088.9792781
S'404 Not Found'
p7
tp8
a(VWroc\u0142aw
p9
F1289700519.8953249
S'404 Not Found'
p10
tp11
a(VWroc\u0142aw
p12
F1289786856.412539
S'404 Not Found'
p13
tp14
a(VWroc\u0142aw
p15
F1289873401.6161339
S'404 Not Found'
p16
tp17
a(VWroc\u0142aw
p18
F1289959730.2395689
S'404 Not Found'
p19
tp20
a(VWroc\u0142aw
p21
F1290046064.9184501
S'404 Not Found'
p22
tp23
a(VWroc\u0142aw
p24
F1290132769.250813
S'404 Not Found'
p25
tp26
a(VWroc\u0142aw
p27
F1290219216.7073979
S'404 Not Found'
p28
tp29
asVhttp://www.kmlomianki.info/lomianki02/001pl%20wilsona%202.htm
p30
(lp31
(VWarszawa
p32
F1289489586.564003
S'404 Not Found'
p33
tp34
a(VWarszawa
p35
F1289527710.3146031
S'404 Not Found'
p36
tp37
a(VWarszawa
p38
F1289614088.92081
S'404 Not Found'
p39
tp40
a(VWarszawa
p41
F1289700519.8313329
S'404 Not Found'
p42
tp43
a(VWarszawa
p44
F1289786856.345607
S'404 Not Found'
p45
tp46
a(VWarszawa
p47
F1289873401.5587771
S'404 Not Found'
p48
tp49
a(VWarszawa
p50
F1289959730.1724889
S'404 Not Found'
p51
tp52
a(VWarszawa
p53
F1290046064.8521039
S'404 Not Found'
p54
tp55
a(VWarszawa
p56
F1290132766.504987
S'404 Not Found'
p57
tp58
a(VWarszawa
p59
F1290219214.4180369
S'404 Not Found'
p60
tp61
asVhttp://www.autostopek.pl
p62
(lp63
(VStrony internetowe
p64
F1289489586.55919
VSocket Error: 'Name or service not known'
p65
tp66
a(VStrony internetowe
p67
F1289527710.3088441
VSocket Error: 'Name or service not known'
p68
tp69
a(VStrony internetowe
p70
F1289614088.9033699
VSocket Error: 'Name or service not known'
p71
tp72
a(VStrony internetowe
p73
F1289700519.890908
VSocket Error: 'Name or service not known'
p74
tp75
a(VStrony internetowe
p76
F1289786856.396765
VSocket Error: 'Name or service not known'
p77
tp78
a(VStrony internetowe
p79
F1289873401.5419199
VSocket Error: 'Name or service not known'
p80
tp81
a(VStrony internetowe
p82
F1289959730.223877
VSocket Error: 'Name or service not known'
p83
tp84
a(VStrony internetowe
p85
F1290046064.852891
VSocket Error: 'Name or service not known'
p86
tp87
a(VStrony internetowe
p88
F1290132760.4966149
VSocket Error: 'Name or service not known'
p89
tp90
a(VStrony internetowe
p91
F1290219212.8848729
VSocket Error: 'Name or service not known'
p92
tp93
a(VStrony internetowe
p94
F1290305566.944659
VSocket Error: 'Name or service not known'
p95
tp96
as.