(dp0
Vhttp://www.flydendeby.dk/
p1
(lp2
(VKopenhag
p3
F1289489527.492949
VSocket Error: 'Name or service not known'
p4
tp5
a(VKopenhag
p6
F1289527669.4591501
VSocket Error: 'Name or service not known'
p7
tp8
a(VKopenhag
p9
F1289614046.1729259
VSocket Error: 'Name or service not known'
p10
tp11
a(VKopenhag
p12
F1289700480.946665
VSocket Error: 'Name or service not known'
p13
tp14
a(VKopenhag
p15
F1289786816.9563849
VSocket Error: 'Name or service not known'
p16
tp17
a(VKopenhag
p18
F1289873311.1749451
VSocket Error: 'Name or service not known'
p19
tp20
a(VKopenhag
p21
F1289959687.3022289
VSocket Error: 'Name or service not known'
p22
tp23
a(VKopenhag
p24
F1290046017.2412751
VSocket Error: 'Name or service not known'
p25
tp26
a(VKopenhag
p27
F1290132708.03828
VSocket Error: 'Name or service not known'
p28
tp29
a(VKopenhag
p30
F1290219174.6332259
VSocket Error: 'Name or service not known'
p31
tp32
a(VKopenhag
p33
F1290305529.7651
VSocket Error: 'Name or service not known'
p34
tp35
as.