(dp0
Vhttp://apps.vienna.at/tools/schwarzkappler/)
p1
(lp2
(VVienna
p3
F1289489251.6238811
S'404 Not Found'
p4
tp5
a(VVienna
p6
F1289527329.7148139
S'404 Not Found'
p7
tp8
a(VVienna
p9
F1289613762.0385871
S'404 Not Found'
p10
tp11
a(VVienna
p12
F1289700142.753454
S'404 Not Found'
p13
tp14
a(VVienna
p15
F1289786536.469698
S'404 Not Found'
p16
tp17
a(VVienna
p18
F1289872941.3326931
S'404 Not Found'
p19
tp20
a(VVienna
p21
F1289959330.001801
S'404 Not Found'
p22
tp23
a(VVienna
p24
F1290045718.0978041
S'404 Not Found'
p25
tp26
asVhttp://www.fgc.net/accesible/cat/viatjar/s2.htm
p27
(lp28
(VBarcelona
p29
F1289489185.025965
S'404 Object Not Found'
p30
tp31
a(VBarcelona
p32
F1289527309.011492
S'404 Object Not Found'
p33
tp34
a(VBarcelona
p35
F1289613729.942759
S'404 Object Not Found'
p36
tp37
a(VBarcelona
p38
F1289700124.7772479
S'404 Object Not Found'
p39
tp40
a(VBarcelona
p41
F1289786516.9037521
S'404 Object Not Found'
p42
tp43
a(VBarcelona
p44
F1289872915.0972941
S'404 Object Not Found'
p45
tp46
a(VBarcelona
p47
F1289959309.5854969
S'404 Object Not Found'
p48
tp49
a(VBarcelona
p50
F1290045694.8339591
S'404 Object Not Found'
p51
tp52
a(VBarcelona
p53
F1290132124.474144
S'404 Object Not Found'
p54
tp55
asVhttp://www.couchsurfing.com/people/silva74
p56
(lp57
(VProject 888/Sign Up Page
p58
F1289489239.529505
S'404 Not Found'
p59
tp60
a(VProject 888/Sign Up Page
p61
F1289527326.2724431
S'404 Not Found'
p62
tp63
a(VProject 888/Sign Up Page
p64
F1289613754.6844549
S'404 Not Found'
p65
tp66
a(VProject 888/Sign Up Page
p67
F1289700144.766582
S'404 Not Found'
p68
tp69
a(VProject 888/Sign Up Page
p70
F1289786533.5714619
S'404 Not Found'
p71
tp72
a(VProject 888/Sign Up Page
p73
F1289872940.3447239
S'404 Not Found'
p74
tp75
a(VProject 888/Sign Up Page
p76
F1289959326.2796011
S'404 Not Found'
p77
tp78
a(VProject 888/Sign Up Page
p79
F1290045713.97277
S'404 Not Found'
p80
tp81
asVhttp://en.wikipedia.org/wiki/Pippa_Bacca
p82
(lp83
(VPippa
p84
F1289489229.210392
S'404 Not Found'
p85
tp86
a(VPippa
p87
F1289527318.224288
S'404 Not Found'
p88
tp89
a(VPippa
p90
F1289613743.3056281
S'404 Not Found'
p91
tp92
a(VPippa
p93
F1289700134.5853341
S'404 Not Found'
p94
tp95
a(VPippa
p96
F1289786526.3732641
S'404 Not Found'
p97
tp98
a(VPippa
p99
F1289872924.8641801
S'404 Not Found'
p100
tp101
a(VPippa
p102
F1289959319.040452
S'404 Not Found'
p103
tp104
a(VPippa
p105
F1290045704.5229781
S'404 Not Found'
p106
tp107
a(VPippa
p108
F1290132317.3929911
S'404 Not Found'
p109
tp110
asVhttp://www.couchsurfing.org)
p111
(lp112
(VFrom Germany to Turkey and back - one month, 200 Euros
p113
F1289489203.5543599
VSocket Error: 'Name or service not known'
p114
tp115
a(VFrom Germany to Turkey and back - one month, 200 Euros
p116
F1289527311.6548359
VSocket Error: 'Name or service not known'
p117
tp118
a(VFrom Germany to Turkey and back - one month, 200 Euros
p119
F1289613733.6505401
VSocket Error: 'Name or service not known'
p120
tp121
a(VFrom Germany to Turkey and back - one month, 200 Euros
p122
F1289700127.4508619
VSocket Error: 'Name or service not known'
p123
tp124
a(VFrom Germany to Turkey and back - one month, 200 Euros
p125
F1289786519.8824241
VSocket Error: 'Name or service not known'
p126
tp127
a(VFrom Germany to Turkey and back - one month, 200 Euros
p128
F1289872917.547044
VSocket Error: 'Name or service not known'
p129
tp130
a(VFrom Germany to Turkey and back - one month, 200 Euros
p131
F1289959312.3704391
VSocket Error: 'Name or service not known'
p132
tp133
a(VFrom Germany to Turkey and back - one month, 200 Euros
p134
F1290045696.7954929
VSocket Error: 'Name or service not known'
p135
tp136
a(VFrom Germany to Turkey and back - one month, 200 Euros
p137
F1290132166.1734011
VSocket Error: 'Name or service not known'
p138
tp139
asVhttp://oucs.blogspot.com/
p140
(lp141
(VBlogging Hitchhikers
p142
F1289489192.0927491
S'404 Not Found'
p143
tp144
a(VBlogging Hitchhikers
p145
F1289527310.674545
S'404 Not Found'
p146
tp147
a(VBlogging Hitchhikers
p148
F1289613732.8413639
S'404 Not Found'
p149
tp150
a(VBlogging Hitchhikers
p151
F1289700126.5352671
S'404 Not Found'
p152
tp153
a(VBlogging Hitchhikers
p154
F1289786519.1568539
S'404 Not Found'
p155
tp156
a(VBlogging Hitchhikers
p157
F1289872916.9279959
S'404 Not Found'
p158
tp159
a(VBlogging Hitchhikers
p160
F1289959311.6169119
S'404 Not Found'
p161
tp162
a(VBlogging Hitchhikers
p163
F1290045696.609601
S'404 Not Found'
p164
tp165
a(VBlogging Hitchhikers
p166
F1290132148.147053
S'404 Not Found'
p167
tp168
asVhttp://www.the789project.eu
p169
(lp170
(V789/Press
p171
F1289482402.274107
VSocket Error: 'Name or service not known'
p172
tp173
a(V789/Press
p174
F1289489162.974216
VSocket Error: 'Name or service not known'
p175
tp176
a(V789/Press
p177
F1289527303.0091829
VSocket Error: 'Name or service not known'
p178
tp179
a(V789/Press
p180
F1289613722.9709251
VSocket Error: 'Name or service not known'
p181
tp182
a(V789/Press
p183
F1289700117.9117999
VSocket Error: 'Name or service not known'
p184
tp185
a(V789/Press
p186
F1289786510.4602261
VSocket Error: 'Name or service not known'
p187
tp188
a(V789/Press
p189
F1289872906.3813069
VSocket Error: 'Name or service not known'
p190
tp191
a(V789/Press
p192
F1289959303.807683
VSocket Error: 'Name or service not known'
p193
tp194
a(V789/Press
p195
F1290045688.7942109
VSocket Error: 'Name or service not known'
p196
tp197
a(V789/Press
p198
F1290132107.5548251
VSocket Error: 'Name or service not known'
p199
tp200
asVhttp://www.zoetermeer.nl/index.php?simaction=content&mediumid=18&pagid=1575&fontsize=13
p201
(lp202
(VZoetermeer
p203
F1289489252.080142
S'404 Not Found'
p204
tp205
a(VZoetermeer
p206
F1289527330.928273
S'404 Not Found'
p207
tp208
a(VZoetermeer
p209
F1289613764.0140009
S'404 Not Found'
p210
tp211
a(VZoetermeer
p212
F1289700143.6158111
S'404 Not Found'
p213
tp214
a(VZoetermeer
p215
F1289786537.5670271
S'404 Not Found'
p216
tp217
a(VZoetermeer
p218
F1289872942.786216
S'404 Not Found'
p219
tp220
a(VZoetermeer
p221
F1289959330.9474709
S'404 Not Found'
p222
tp223
a(VZoetermeer
p224
F1290045719.1529529
S'404 Not Found'
p225
tp226
asVhttp://www.tesco.pl/sklepy-tesco/sklepy/wroclaw-bielany/rozkladjazdy-01.html
p227
(lp228
(VWroc\u0142aw
p229
F1289489251.3951039
S'404 Not Found'
p230
tp231
a(VWroc\u0142aw
p232
F1289613765.2795589
S'404 Not Found'
p233
tp234
a(VWroc\u0142aw
p235
F1289700143.9398911
S'404 Not Found'
p236
tp237
a(VWroc\u0142aw
p238
F1289786537.4502211
S'404 Not Found'
p239
tp240
a(VWroc\u0142aw
p241
F1289872942.668391
S'404 Not Found'
p242
tp243
a(VWroc\u0142aw
p244
F1289959331.165235
S'404 Not Found'
p245
tp246
a(VWroc\u0142aw
p247
F1290045719.257966
S'404 Not Found'
p248
tp249
asVhttp://www.bkv.hu/english/busz/173evissza.html
p250
(lp251
(VBudapest
p252
F1289489202.7091169
S'404 Not Found'
p253
tp254
a(VBudapest
p255
F1289527314.3453479
S'404 Not Found'
p256
tp257
a(VBudapest
p258
F1289613733.5178199
S'404 Not Found'
p259
tp260
a(VBudapest
p261
F1289700136.1470571
S'404 Not Found'
p262
tp263
a(VBudapest
p264
F1289786522.527575
S'404 Not Found'
p265
tp266
a(VBudapest
p267
F1289872920.4056289
S'404 Not Found'
p268
tp269
a(VBudapest
p270
F1289959317.163039
S'404 Not Found'
p271
tp272
a(VBudapest
p273
F1290045696.764015
S'404 Not Found'
p274
tp275
a(VBudapest
p276
F1290132159.9708509
S'404 Not Found'
p277
tp278
asVhttp://lcd.org.uk/
p279
(lp280
(g142
F1289489192.376652
VSocket Error: 'Name or service not known'
p281
tp282
a(g145
F1289527310.987963
VSocket Error: 'Name or service not known'
p283
tp284
a(g148
F1289613732.9081781
VSocket Error: 'Name or service not known'
p285
tp286
a(g151
F1289700126.7602
VSocket Error: 'Name or service not known'
p287
tp288
a(g154
F1289786519.085273
VSocket Error: 'Name or service not known'
p289
tp290
a(g157
F1289872917.2841301
VSocket Error: 'Name or service not known'
p291
tp292
a(g160
F1289959312.0139019
VSocket Error: 'Name or service not known'
p293
tp294
a(g163
F1290045696.412956
VSocket Error: 'Name or service not known'
p295
tp296
a(g166
F1290132149.7830241
VSocket Error: 'Name or service not known'
p297
tp298
asVhttp://www.couchsurfing.com/people/martinboserup
p299
(lp300
(g58
F1289489234.3991759
S'404 Not Found'
p301
tp302
a(g61
F1289527324.6875601
S'404 Not Found'
p303
tp304
a(g64
F1289613748.18449
S'404 Not Found'
p305
tp306
a(g67
F1289700136.545439
S'404 Not Found'
p307
tp308
a(g70
F1289786529.2220199
S'404 Not Found'
p309
tp310
a(g73
F1289872929.882478
S'404 Not Found'
p311
tp312
a(g76
F1289959321.936404
S'404 Not Found'
p313
tp314
a(g79
F1290045709.2362211
S'404 Not Found'
p315
tp316
asVhttp://www.alien.ru/~blast/
p317
(lp318
(V6810/Evolution
p319
F1289482399.7015369
S'404 Not Found'
p320
tp321
a(V6810/Evolution
p322
F1289489157.867075
S'404 Not Found'
p323
tp324
a(V6810/Evolution
p325
F1289527299.591373
S'404 Not Found'
p326
tp327
a(V6810/Evolution
p328
F1289613719.787447
S'404 Not Found'
p329
tp330
a(V6810/Evolution
p331
F1289700115.1752391
S'404 Not Found'
p332
tp333
a(V6810/Evolution
p334
F1289786508.0683441
S'404 Not Found'
p335
tp336
a(V6810/Evolution
p337
F1289872904.0293081
S'404 Not Found'
p338
tp339
a(V6810/Evolution
p340
F1289959302.0018589
S'404 Not Found'
p341
tp342
a(V6810/Evolution
p343
F1290045686.3906629
S'404 Not Found'
p344
tp345
a(V6810/Evolution
p346
F1290132096.4709539
S'404 Not Found'
p347
tp348
a(V6810/Evolution
p349
F1290165482.1954119
S'404 Not Found'
p350
tp351
asVhttp://www.bkv.hu/angol/home/index.html
p352
(lp353
(g252
F1289489215.144726
VSocket Error: 'Connection timed out'
p354
tp355
a(g255
F1289527311.251137
S'404 Not Found'
p356
tp357
a(g258
F1289613733.362057
S'404 Not Found'
p358
tp359
a(g261
F1289700130.114126
S'404 Not Found'
p360
tp361
a(g264
F1289786522.4052849
S'404 Not Found'
p362
tp363
a(g267
F1289872917.2767911
S'404 Not Found'
p364
tp365
a(g270
F1289959312.165097
S'404 Not Found'
p366
tp367
a(g273
F1290045696.6359291
S'404 Not Found'
p368
tp369
a(g276
F1290132153.482769
S'404 Not Found'
p370
tp371
asVhttp://horner-kreisel.hitchbase.com/
p372
(lp373
(VHamburg
p374
F1289489205.0926771
S'403 Forbidden'
p375
tp376
a(VHamburg
p377
F1289527311.9588971
S'403 Forbidden'
p378
tp379
a(VHamburg
p380
F1289613734.2341089
S'403 Forbidden'
p381
tp382
a(VHamburg
p383
F1289700127.749949
S'403 Forbidden'
p384
tp385
a(VHamburg
p386
F1289786520.035742
S'403 Forbidden'
p387
tp388
a(VHamburg
p389
F1289872917.9229851
S'403 Forbidden'
p390
tp391
a(VHamburg
p392
F1289959312.7721779
S'403 Forbidden'
p393
tp394
a(VHamburg
p395
F1290045697.083564
S'403 Forbidden'
p396
tp397
a(VHamburg
p398
F1290132168.6957779
S'403 Forbidden'
p399
tp400
asVhttp://web.archive.org/web/20030625221556/http://www.mastery.net/travel/hitch.htm|Key
p401
(lp402
(VHitchhiking World Records
p403
F1289489224.767288
S'404 Not Found'
p404
tp405
a(VHitchhiking World Records
p406
F1289527315.6766069
S'404 Not Found'
p407
tp408
a(VHitchhiking World Records
p409
F1289613740.194752
S'404 Not Found'
p410
tp411
a(VHitchhiking World Records
p412
F1289700133.758409
S'404 Not Found'
p413
tp414
a(VHitchhiking World Records
p415
F1289786525.66012
S'404 Not Found'
p416
tp417
a(VHitchhiking World Records
p418
F1289872921.9016631
S'404 Not Found'
p419
tp420
a(VHitchhiking World Records
p421
F1289959315.4084389
S'404 Not Found'
p422
tp423
a(VHitchhiking World Records
p424
F1290045699.389714
S'404 Not Found'
p425
tp426
a(VHitchhiking World Records
p427
F1290132219.4996641
VSocket Error: 'Connection timed out'
p428
tp429
asVhttp://www.ikea.com/webapp/wcs/stores/servlet/IkeaNearYouView?storeId=8&StoreName=store_voesendorf
p430
(lp431
(g3
F1289489248.663779
S'404 Not Found'
p432
tp433
a(g6
F1289527329.818732
S'404 Not Found'
p434
tp435
a(g9
F1289613761.972259
S'404 Not Found'
p436
tp437
a(g12
F1289700143.108109
S'404 Not Found'
p438
tp439
a(g15
F1289786536.759923
S'404 Not Found'
p440
tp441
a(g18
F1289872941.3743601
S'404 Not Found'
p442
tp443
a(g21
F1289959329.8974061
S'404 Not Found'
p444
tp445
a(g24
F1290045717.6150041
S'404 Not Found'
p446
tp447
asVhttp://www.no-comment.dk/index_paris.html
p448
(lp449
(VHitchhiking in movies
p450
F1289489210.1527579
S'404 Not Found'
p451
tp452
a(VHitchhiking in movies
p453
F1289527312.967011
S'404 Not Found'
p454
tp455
a(VHitchhiking in movies
p456
F1289613735.8286221
S'404 Not Found'
p457
tp458
a(VHitchhiking in movies
p459
F1289700128.965663
S'404 Not Found'
p460
tp461
a(VHitchhiking in movies
p462
F1289786520.940614
S'404 Not Found'
p463
tp464
a(VHitchhiking in movies
p465
F1289872919.130579
S'404 Not Found'
p466
tp467
a(VHitchhiking in movies
p468
F1289959314.0501571
S'404 Not Found'
p469
tp470
a(VHitchhiking in movies
p471
F1290045698.584667
S'404 Not Found'
p472
tp473
a(VHitchhiking in movies
p474
F1290132185.1952071
S'404 Not Found'
p475
tp476
asVhttp://www.brisa.pt/BRISA/vPT/Viajar+na+Rede/Transito+Online/?tipo=estrada&idae=1
p477
(lp478
(VLisbon
p479
F1289489218.8711891
S'404 Not Found'
p480
tp481
a(VLisbon
p482
F1289527314.6442659
S'404 Not Found'
p483
tp484
a(VLisbon
p485
F1289613777.9730029
VSocket Error: 'Temporary failure in name resolution'
p486
tp487
a(VLisbon
p488
F1289700130.8111999
S'404 Not Found'
p489
tp490
a(VLisbon
p491
F1289786522.871352
S'404 Not Found'
p492
tp493
a(VLisbon
p494
F1289872921.2032609
S'404 Not Found'
p495
tp496
a(VLisbon
p497
F1289959315.502898
S'404 Not Found'
p498
tp499
a(VLisbon
p500
F1290045700.951026
S'404 Not Found'
p501
tp502
a(VLisbon
p503
F1290132222.7376659
S'404 Not Found'
p504
tp505
asVhttp://hitchgathering.org/user/310/contact
p506
(lp507
(V6810/news
p508
F1289482434.8218851
S'403 Forbidden'
p509
tp510
a(V6810/news
p511
F1289489216.8455629
S'403 Forbidden'
p512
tp513
a(V6810/news
p514
F1289527331.4473901
S'403 Forbidden'
p515
tp516
a(V6810/news
p517
F1289613723.514174
S'403 Forbidden'
p518
tp519
a(V6810/news
p520
F1289700145.1362309
S'403 Forbidden'
p521
tp522
a(V6810/news
p523
F1289959358.3821299
S'403 Forbidden'
p524
tp525
asVhttp://www.beta.abgefahren-ev.de
p526
(lp527
(VAbgefahren e.V.
p528
F1289489179.8733079
VSocket Error: 'Name or service not known'
p529
tp530
a(VAbgefahren e.V.
p531
F1289527307.622968
VSocket Error: 'Name or service not known'
p532
tp533
a(VAbgefahren e.V.
p534
F1289613728.3592911
VSocket Error: 'Name or service not known'
p535
tp536
a(VAbgefahren e.V.
p537
F1289700123.270623
VSocket Error: 'Name or service not known'
p538
tp539
a(VAbgefahren e.V.
p540
F1289786515.506839
VSocket Error: 'Name or service not known'
p541
tp542
a(VAbgefahren e.V.
p543
F1289872912.500869
VSocket Error: 'Name or service not known'
p544
tp545
a(VAbgefahren e.V.
p546
F1289959308.0565701
VSocket Error: 'Name or service not known'
p547
tp548
a(VAbgefahren e.V.
p549
F1290045693.6685131
VSocket Error: 'Name or service not known'
p550
tp551
a(VAbgefahren e.V.
p552
F1290132114.81866
VSocket Error: 'Name or service not known'
p553
tp554
asVhttp://www.kmlomianki.info/lomianki02/001pl%20wilsona%202.htm
p555
(lp556
(VWarsaw
p557
F1289489249.5985639
S'404 Not Found'
p558
tp559
a(VWarsaw
p560
F1289527330.516439
S'404 Not Found'
p561
tp562
a(VWarsaw
p563
F1289613763.4047999
S'404 Not Found'
p564
tp565
a(VWarsaw
p566
F1289700143.473829
S'404 Not Found'
p567
tp568
a(VWarsaw
p569
F1289786537.289257
S'404 Not Found'
p570
tp571
a(VWarsaw
p572
F1289872942.405036
S'404 Not Found'
p573
tp574
a(VWarsaw
p575
F1289959330.6020131
S'404 Not Found'
p576
tp577
a(VWarsaw
p578
F1290045718.683629
S'404 Not Found'
p579
tp580
asVhttp://www.extreme.ncport.ru/
p581
(lp582
(g319
F1289482398.22118
VSocket Error: 'Connection refused'
p583
tp584
a(g322
F1289489157.0716021
VSocket Error: 'Connection refused'
p585
tp586
a(g325
F1289527298.8593521
VSocket Error: 'Connection refused'
p587
tp588
a(g328
F1289613718.3867171
VSocket Error: 'Connection refused'
p589
tp590
a(g331
F1289700114.0849731
VSocket Error: 'Connection refused'
p591
tp592
a(g334
F1289786507.3383901
VSocket Error: 'Connection refused'
p593
tp594
a(g337
F1289872902.8159649
VSocket Error: 'Connection refused'
p595
tp596
a(g340
F1289959301.061044
VSocket Error: 'Connection refused'
p597
tp598
a(g343
F1290045685.5947261
VSocket Error: 'Connection refused'
p599
tp600
a(g346
F1290132087.7367179
VSocket Error: 'Connection refused'
p601
tp602
a(g349
F1290165475.0211029
VSocket Error: 'Connection refused'
p603
tp604
a(V6810/Evolution
p605
F1290173836.533746
VSocket Error: 'Connection refused'
p606
tp607
asVhttp://www.tisseo.fr/sites/default/files/Tisseo_ete79web.pdf
p608
(lp609
(VToulouse
p610
F1289489247.1487811
S'404 Not Found'
p611
tp612
a(VToulouse
p613
F1289527329.7215559
S'404 Not Found'
p614
tp615
a(VToulouse
p616
F1289613761.788121
S'404 Not Found'
p617
tp618
a(VToulouse
p619
F1289700142.7674749
S'404 Not Found'
p620
tp621
a(VToulouse
p622
F1289786536.4298689
S'404 Not Found'
p623
tp624
a(VToulouse
p625
F1289872941.3323619
S'404 Not Found'
p626
tp627
a(VToulouse
p628
F1289959329.8090019
S'404 Not Found'
p629
tp630
a(VToulouse
p631
F1290045717.7229221
S'404 Not Found'
p632
tp633
asVhttp://www.hitchwiki.org/en/Video:Robino_Hitchhiking
p634
(lp635
(VProject 888/Newsletter
p636
F1289489235.4646211
S'404 Not Found'
p637
tp638
a(VProject 888/Newsletter
p639
F1289527322.8768351
S'404 Not Found'
p640
tp641
a(VProject 888/Newsletter
p642
F1289613744.361377
S'404 Not Found'
p643
tp644
a(VProject 888/Newsletter
p645
F1289700136.4566989
S'404 Not Found'
p646
tp647
a(VProject 888/Newsletter
p648
F1289786529.167958
S'404 Not Found'
p649
tp650
a(VProject 888/Newsletter
p651
F1289872926.5874419
S'404 Not Found'
p652
tp653
a(VProject 888/Newsletter
p654
F1289959321.3403089
S'404 Not Found'
p655
tp656
a(VProject 888/Newsletter
p657
F1290045711.556973
S'404 Not Found'
p658
tp659
a(VProject 888/Newsletter
p660
F1290132327.7925191
S'404 Not Found'
p661
tp662
asVhttp://www.autobahnatlas-online.de/A99.htm)
p663
(lp664
(VMunich
p665
F1289489224.0097449
S'404 Not Found'
p666
tp667
a(VMunich
p668
F1289527315.0831411
S'404 Not Found'
p669
tp670
a(VMunich
p671
F1289613739.46453
S'404 Not Found'
p672
tp673
a(VMunich
p674
F1289700131.3666451
S'404 Not Found'
p675
tp676
a(VMunich
p677
F1289786523.3565669
S'404 Not Found'
p678
tp679
a(VMunich
p680
F1289872921.9862189
S'404 Not Found'
p681
tp682
a(VMunich
p683
F1289959316.318624
S'404 Not Found'
p684
tp685
a(VMunich
p686
F1290045701.8376701
S'404 Not Found'
p687
tp688
a(VMunich
p689
F1290132240.4959791
S'404 Not Found'
p690
tp691
asVhttp://en.wikipedia.org/wikI/Union_of_South_Africa
p692
(lp693
(VSouthern Africa
p694
F1289489245.8057721
S'404 Not Found'
p695
tp696
a(VSouthern Africa
p697
F1289527329.1495421
S'404 Not Found'
p698
tp699
a(VSouthern Africa
p700
F1289613761.0411749
S'404 Not Found'
p701
tp702
a(VSouthern Africa
p703
F1289700142.1118641
S'404 Not Found'
p704
tp705
a(VSouthern Africa
p706
F1289786535.6200609
S'404 Not Found'
p707
tp708
a(VSouthern Africa
p709
F1289872940.547652
S'404 Not Found'
p710
tp711
a(VSouthern Africa
p712
F1289959329.0560329
S'404 Not Found'
p713
tp714
a(VSouthern Africa
p715
F1290045716.9275301
S'404 Not Found'
p716
tp717
asVhttp://abgefahren.hitchbase.com/DE/categorie/bloginhalt/aethiopien
p718
(lp719
(VEthiopia
p720
F1289489202.4555349
S'404 Not Found'
p721
tp722
a(VEthiopia
p723
F1289527313.4038739
S'404 Not Found'
p724
tp725
a(VEthiopia
p726
F1289613734.2376561
S'404 Not Found'
p727
tp728
a(VEthiopia
p729
F1289700129.586648
S'404 Not Found'
p730
tp731
a(VEthiopia
p732
F1289786520.484513
S'404 Not Found'
p733
tp734
a(VEthiopia
p735
F1289872917.789155
S'404 Not Found'
p736
tp737
a(VEthiopia
p738
F1289959312.7109311
S'404 Not Found'
p739
tp740
a(VEthiopia
p741
F1290045697.025892
S'404 Not Found'
p742
tp743
a(VEthiopia
p744
F1290132165.398221
S'404 Not Found'
p745
tp746
asVhttp://www.zsti.gliwice.pl/ptsm/index.html
p747
(lp748
(VGliwice
p749
F1289489204.731992
S'404 Not Found'
p750
tp751
a(VGliwice
p752
F1289527312.0324349
S'404 Not Found'
p753
tp754
a(VGliwice
p755
F1289613734.1973889
S'404 Not Found'
p756
tp757
a(VGliwice
p758
F1289700127.8103759
S'404 Not Found'
p759
tp760
a(VGliwice
p761
F1289786520.198772
S'404 Not Found'
p762
tp763
a(VGliwice
p764
F1289872917.9855199
S'404 Not Found'
p765
tp766
a(VGliwice
p767
F1289959312.9225471
S'404 Not Found'
p768
tp769
a(VGliwice
p770
F1290045697.143805
S'404 Not Found'
p771
tp772
a(VGliwice
p773
F1290132171.1487291
S'404 Not Found'
p774
tp775
asVhttp://abgefahren.hitchbase.com/schwachsinn
p776
(lp777
(V789/coordination
p778
F1289489177.282696
S'403 Forbidden'
p779
tp780
a(V789/coordination
p781
F1289527312.2472601
S'403 Forbidden'
p782
tp783
a(V789/coordination
p784
F1289613730.2862861
S'403 Forbidden'
p785
tp786
a(V789/coordination
p787
F1289700125.8065701
S'403 Forbidden'
p788
tp789
a(V789/coordination
p790
F1289786519.1367321
S'403 Forbidden'
p791
tp792
a(V789/coordination
p793
F1289872914.9362299
S'403 Forbidden'
p794
tp795
a(V789/coordination
p796
F1289959308.429786
S'403 Forbidden'
p797
tp798
a(V789/coordination
p799
F1290045694.3951139
S'403 Forbidden'
p800
tp801
a(V789/coordination
p802
F1290132111.7535961
S'403 Forbidden'
p803
tp804
asVhttp://www.j-sapa.or.jp/
p805
(lp806
(VJapan
p807
F1289489216.72735
VSocket Error: 'Name or service not known'
p808
tp809
a(VJapan
p810
F1289527313.654804
VSocket Error: 'Name or service not known'
p811
tp812
a(VJapan
p813
F1289613736.8230419
VSocket Error: 'Name or service not known'
p814
tp815
a(VJapan
p816
F1289700129.753166
VSocket Error: 'Name or service not known'
p817
tp818
a(VJapan
p819
F1289786521.82762
VSocket Error: 'Name or service not known'
p820
tp821
a(VJapan
p822
F1289872919.9462509
VSocket Error: 'Name or service not known'
p823
tp824
a(VJapan
p825
F1289959314.447814
VSocket Error: 'Name or service not known'
p826
tp827
a(VJapan
p828
F1290045699.4056799
VSocket Error: 'Name or service not known'
p829
tp830
a(VJapan
p831
F1290132188.8846221
VSocket Error: 'Name or service not known'
p832
tp833
asVhttp://abgefahren.hitchbase.com/DE/blogs/alex/20090213/just-hitching-rides-journey-eid-christmas
p834
(lp835
(VIran
p836
F1289489217.2136509
S'404 Not Found'
p837
tp838
a(VIran
p839
F1289527314.6971519
S'404 Not Found'
p840
tp841
a(VIran
p842
F1289613737.190701
S'404 Not Found'
p843
tp844
a(VIran
p845
F1289700130.7802291
S'404 Not Found'
p846
tp847
a(VIran
p848
F1289786522.119525
S'404 Not Found'
p849
tp850
a(VIran
p851
F1289872920.0659389
S'404 Not Found'
p852
tp853
a(VIran
p854
F1289959314.4983931
S'404 Not Found'
p855
tp856
a(VIran
p857
F1290045699.803215
S'404 Not Found'
p858
tp859
a(VIran
p860
F1290132187.67029
S'404 Not Found'
p861
tp862
asVhttp://hitchwiki.org/en/Abgefahren_e.V
p863
(lp864
(VHitchhiking clubs
p865
F1289489210.2715299
S'404 Not Found'
p866
tp867
a(VHitchhiking clubs
p868
F1289527314.5809751
S'404 Not Found'
p869
tp870
a(VHitchhiking clubs
p871
F1289613735.797317
S'404 Not Found'
p872
tp873
a(VHitchhiking clubs
p874
F1289700133.108048
S'404 Not Found'
p875
tp876
a(VHitchhiking clubs
p877
F1289786521.3899131
S'404 Not Found'
p878
tp879
a(VHitchhiking clubs
p880
F1289872919.270612
S'404 Not Found'
p881
tp882
a(VHitchhiking clubs
p883
F1289959313.9108109
S'404 Not Found'
p884
tp885
a(VHitchhiking clubs
p886
F1290045698.4878221
S'404 Not Found'
p887
tp888
a(VHitchhiking clubs
p889
F1290132183.9215081
S'404 Not Found'
p890
tp891
asVhttp://www.brisa.pt/Brisa/vPT/Viajar+na+Rede/A+Rede+Brisa/
p892
(lp893
(VPortugal
p894
F1289489230.0145121
S'404 Not Found'
p895
tp896
a(VPortugal
p897
F1289527318.0533569
S'404 Not Found'
p898
tp899
a(VPortugal
p900
F1289613782.7134769
VSocket Error: 'Temporary failure in name resolution'
p901
tp902
a(VPortugal
p903
F1289700134.0966499
S'404 Not Found'
p904
tp905
a(VPortugal
p906
F1289786525.803278
S'404 Not Found'
p907
tp908
a(VPortugal
p909
F1289872924.6956611
S'404 Not Found'
p910
tp911
a(VPortugal
p912
F1289959318.5207851
S'404 Not Found'
p913
tp914
a(VPortugal
p915
F1290045704.2726519
S'404 Not Found'
p916
tp917
a(VPortugal
p918
F1290132318.496546
S'404 Not Found'
p919
tp920
asVhttp://robingallup.com/2008/10/14/hitchhikers/
p921
(lp922
(VPicking up hitchhikers
p923
F1289489229.2295289
S'404 Not Found'
p924
tp925
a(VPicking up hitchhikers
p926
F1289527317.937916
S'404 Not Found'
p927
tp928
a(VPicking up hitchhikers
p929
F1289613742.6114869
S'404 Not Found'
p930
tp931
a(VPicking up hitchhikers
p932
F1289700134.0890119
S'404 Not Found'
p933
tp934
a(VPicking up hitchhikers
p935
F1289786526.097101
S'404 Not Found'
p936
tp937
a(VPicking up hitchhikers
p938
F1289872944.7546189
S'404 Not Found'
p939
tp940
a(VPicking up hitchhikers
p941
F1289959338.3897309
VSocket Error: 'Connection timed out'
p942
tp943
a(VPicking up hitchhikers
p944
F1290045704.2987349
S'404 Not Found'
p945
tp946
a(VPicking up hitchhikers
p947
F1290132280.147289
S'404 Not Found'
p948
tp949
asVhttp://hitchgathering.org/users/xo/
p950
(lp951
(V6810/Lightfoot
p952
F1289482434.7989099
S'403 Forbidden'
p953
tp954
a(V6810/Lightfoot
p955
F1289489216.891572
S'403 Forbidden'
p956
tp957
a(V6810/Lightfoot
p958
F1289527332.3565111
S'403 Forbidden'
p959
tp960
a(V6810/Lightfoot
p961
F1289700142.785743
S'403 Forbidden'
p962
tp963
a(V6810/Lightfoot
p964
F1289959357.7025781
S'403 Forbidden'
p965
tp966
asVhttp://www.todayszaman.com/tz-web/detaylar.do?load=detay&link=155284&bolum=101
p967
(lp968
(g84
F1289489228.5209241
S'404 /tz-web/detaylar.do'
p969
tp970
a(g87
F1289527317.734087
S'404 /detaylar.do'
p971
tp972
a(g90
F1289613742.638834
S'404 /detaylar.do'
p973
tp974
a(g93
F1289700134.1113751
S'404 /detaylar.do'
p975
tp976
a(g96
F1289786525.87257
S'404 /detaylar.do'
p977
tp978
a(g99
F1289872924.4323831
S'404 /detaylar.do'
p979
tp980
a(g102
F1289959318.4265709
S'404 /detaylar.do'
p981
tp982
a(g105
F1290045704.2072289
S'404 /detaylar.do'
p983
tp984
a(g108
F1290132308.5264039
S'404 /detaylar.do'
p985
tp986
asVhttp://the789project.com/
p987
(lp988
(V789/News
p989
F1289482400.9408591
VSocket Error: 'Temporary failure in name resolution'
p990
tp991
a(V789/News
p992
F1289489160.4412169
VSocket Error: 'Temporary failure in name resolution'
p993
tp994
a(V789/News
p995
F1289527300.858582
VSocket Error: 'Temporary failure in name resolution'
p996
tp997
a(V789/News
p998
F1289613720.616348
VSocket Error: 'Temporary failure in name resolution'
p999
tp1000
a(V789/News
p1001
F1289700120.827981
VSocket Error: 'Temporary failure in name resolution'
p1002
tp1003
a(V789/News
p1004
F1289786509.309159
VSocket Error: 'Temporary failure in name resolution'
p1005
tp1006
a(V789/News
p1007
F1289872904.9351201
VSocket Error: 'Temporary failure in name resolution'
p1008
tp1009
a(V789/News
p1010
F1289959302.836952
VSocket Error: 'Temporary failure in name resolution'
p1011
tp1012
a(V789/News
p1013
F1290045687.534785
VSocket Error: 'Temporary failure in name resolution'
p1014
tp1015
a(V789/News
p1016
F1290132102.4546609
VSocket Error: 'Temporary failure in name resolution'
p1017
tp1018
asVhttp://www.couchsurfing.com/people/larisskart
p1019
(lp1020
(g58
F1289489240.20453
S'404 Not Found'
p1021
tp1022
a(g61
F1289527326.788624
S'404 Not Found'
p1023
tp1024
a(g64
F1289613755.8036561
S'404 Not Found'
p1025
tp1026
a(g67
F1289700140.2825961
S'404 Not Found'
p1027
tp1028
a(g70
F1289786534.012635
S'404 Not Found'
p1029
tp1030
a(g73
F1289872936.273416
S'404 Not Found'
p1031
tp1032
a(g76
F1289959326.9084761
S'404 Not Found'
p1033
tp1034
a(g79
F1290045714.33781
S'404 Not Found'
p1035
tp1036
asVhttp://www.lcd.org.uk/events/hitch
p1037
(lp1038
(VPolitical hitchhiking
p1039
F1289489230.6659379
S'404 Not Found'
p1040
tp1041
a(VPolitical hitchhiking
p1042
F1289527318.4480121
S'404 Not Found'
p1043
tp1044
a(VPolitical hitchhiking
p1045
F1289613743.374953
S'404 Not Found'
p1046
tp1047
a(VPolitical hitchhiking
p1048
F1289700134.5257599
S'404 Not Found'
p1049
tp1050
a(VPolitical hitchhiking
p1051
F1289786526.371613
S'404 Not Found'
p1052
tp1053
a(VPolitical hitchhiking
p1054
F1289872925.0729351
S'404 Not Found'
p1055
tp1056
a(VPolitical hitchhiking
p1057
F1289959320.359601
S'404 Not Found'
p1058
tp1059
a(VPolitical hitchhiking
p1060
F1290045706.0933819
S'404 Not Found'
p1061
tp1062
a(VPolitical hitchhiking
p1063
F1290132319.024411
S'404 Not Found'
p1064
tp1065
asVhttp://www.parismatch.com/dans-l-oeil-de-match/reportages/le-projet-888-rassemble-les-autostoppeurs-europeens/(gid)/46523
p1066
(lp1067
(g636
F1289489231.119987
S'404 Not Found'
p1068
tp1069
a(g639
F1289527318.1584151
S'404 Not Found'
p1070
tp1071
a(g642
F1289613742.9861231
S'404 Not Found'
p1072
tp1073
a(g645
F1289700134.101455
S'404 Not Found'
p1074
tp1075
a(g648
F1289786525.975929
S'404 Not Found'
p1076
tp1077
a(g651
F1289872924.875962
S'404 Not Found'
p1078
tp1079
a(g654
F1289959318.731931
S'404 Not Found'
p1080
tp1081
a(g657
F1290045704.361418
S'404 Not Found'
p1082
tp1083
a(g660
F1290132324.2117751
S'404 Not Found'
p1084
tp1085
asVhttp://www.couchsurfing.com/people/michouf
p1086
(lp1087
(g58
F1289489241.0409579
S'404 Not Found'
p1088
tp1089
a(g61
F1289527330.82622
S'404 Not Found'
p1090
tp1091
a(g64
F1289613757.702282
S'404 Not Found'
p1092
tp1093
a(g67
F1289700141.1861939
S'404 Not Found'
p1094
tp1095
a(g70
F1289786534.7830009
S'404 Not Found'
p1096
tp1097
a(g73
F1289872937.7966421
S'404 Not Found'
p1098
tp1099
a(g76
F1289959328.0647621
S'404 Not Found'
p1100
tp1101
a(g79
F1290045715.4067869
S'404 Not Found'
p1102
tp1103
asVhttp://hitchgathering.org/send-me-flyers/add-me
p1104
(lp1105
(g508
F1289482435.877861
S'403 Forbidden'
p1106
tp1107
a(g511
F1289489221.772383
S'403 Forbidden'
p1108
tp1109
a(g514
F1289527334.6886799
S'403 Forbidden'
p1110
tp1111
a(g520
F1289700142.9686699
S'403 Forbidden'
p1112
tp1113
a(g523
F1289959358.6948531
S'403 Forbidden'
p1114
tp1115
asVhttp://hitchgathering.org/users/shaun/
p1116
(lp1117
(g952
F1289482433.2458999
S'403 Forbidden'
p1118
tp1119
a(g955
F1289489219.833771
S'403 Forbidden'
p1120
tp1121
a(g958
F1289527331.355087
S'403 Forbidden'
p1122
tp1123
a(g961
F1289700144.58498
S'403 Forbidden'
p1124
tp1125
a(g964
F1289959357.9714761
S'403 Forbidden'
p1126
tp1127
asVhttp://www.butterflyvalley.com
p1128
(lp1129
(VKelebekler Vadisi
p1130
F1289489278.203603
VHTTP Error: BadStatusLine
p1131
tp1132
a(VKelebekler Vadisi
p1133
F1290132281.6922679
VHTTP Error: BadStatusLine
p1134
tp1135
asVhttp://www.volunteerconnection.net/why/VCfaq.html|a
p1136
(lp1137
(VNorth America Hitch Gathering
p1138
F1289489226.441479
S'404 Not Found'
p1139
tp1140
a(VNorth America Hitch Gathering
p1141
F1289527316.142952
S'404 Not Found'
p1142
tp1143
a(VNorth America Hitch Gathering
p1144
F1289613742.806752
S'404 Not Found'
p1145
tp1146
a(VNorth America Hitch Gathering
p1147
F1289700132.618438
S'404 Not Found'
p1148
tp1149
a(VNorth America Hitch Gathering
p1150
F1289786524.7014799
S'404 Not Found'
p1151
tp1152
a(VNorth America Hitch Gathering
p1153
F1289872923.0702741
S'404 Not Found'
p1154
tp1155
a(VNorth America Hitch Gathering
p1156
F1289959317.1814079
S'404 Not Found'
p1157
tp1158
a(VNorth America Hitch Gathering
p1159
F1290045702.8507409
S'404 Not Found'
p1160
tp1161
a(VNorth America Hitch Gathering
p1162
F1290132243.5590589
S'404 Not Found'
p1163
tp1164
asVhttp://meeting.abgefahren-ev.de/
p1165
(lp1166
(g636
F1289489231.749481
VSocket Error: 'Name or service not known'
p1167
tp1168
a(g639
F1289527319.0433669
VSocket Error: 'Name or service not known'
p1169
tp1170
a(g642
F1289613744.1197269
VSocket Error: 'Name or service not known'
p1171
tp1172
a(g645
F1289700134.204591
VSocket Error: 'Name or service not known'
p1173
tp1174
a(g648
F1289786526.4093571
VSocket Error: 'Name or service not known'
p1175
tp1176
a(g651
F1289872926.018043
VSocket Error: 'Name or service not known'
p1177
tp1178
a(g654
F1289959318.9266081
VSocket Error: 'Name or service not known'
p1179
tp1180
a(g657
F1290045704.6646421
VSocket Error: 'Name or service not known'
p1181
tp1182
asVhttp://wiki.mega2000.de/moin.cgi/LiftersHalte
p1183
(lp1184
(VLiftershalte.info
p1185
F1289489218.628082
S'404 Not Found'
p1186
tp1187
a(VLiftershalte.info
p1188
F1289527314.295893
S'404 Not Found'
p1189
tp1190
a(VLiftershalte.info
p1191
F1289613737.9678349
S'404 Not Found'
p1192
tp1193
a(VLiftershalte.info
p1194
F1289700130.9988191
S'404 Not Found'
p1195
tp1196
a(VLiftershalte.info
p1197
F1289786522.4593389
S'404 Not Found'
p1198
tp1199
a(VLiftershalte.info
p1200
F1289872920.663578
S'404 Not Found'
p1201
tp1202
a(VLiftershalte.info
p1203
F1289959315.185478
S'404 Not Found'
p1204
tp1205
a(VLiftershalte.info
p1206
F1290045700.576936
S'404 Not Found'
p1207
tp1208
a(VLiftershalte.info
p1209
F1290132214.88343
S'404 Not Found'
p1210
tp1211
asVhttp://freegan.org.uk/
p1212
(lp1213
(VLondon
p1214
F1289489240.6556499
VSocket Error: 'Temporary failure in name resolution'
p1215
tp1216
a(VLondon
p1217
F1289527335.8130381
VSocket Error: 'Temporary failure in name resolution'
p1218
tp1219
a(VLondon
p1220
F1289613760.0150399
VSocket Error: 'Temporary failure in name resolution'
p1221
tp1222
a(VLondon
p1223
F1289700151.9912679
VSocket Error: 'Temporary failure in name resolution'
p1224
tp1225
a(VLondon
p1226
F1289786544.116899
VSocket Error: 'Temporary failure in name resolution'
p1227
tp1228
a(VLondon
p1229
F1289872942.4114161
VSocket Error: 'Temporary failure in name resolution'
p1230
tp1231
a(VLondon
p1232
F1289959336.826432
VSocket Error: 'Temporary failure in name resolution'
p1233
tp1234
a(VLondon
p1235
F1290045722.2754409
VSocket Error: 'Temporary failure in name resolution'
p1236
tp1237
a(VLondon
p1238
F1290132246.5735559
VSocket Error: 'Temporary failure in name resolution'
p1239
tp1240
asVhttp://ns.nl/)
p1241
(lp1242
(VAmsterdam
p1243
F1289489183.625212
S'404 Not Found'
p1244
tp1245
a(VAmsterdam
p1246
F1289527308.5138509
S'404 Not Found'
p1247
tp1248
a(VAmsterdam
p1249
F1289613729.6424651
S'404 Not Found'
p1250
tp1251
a(VAmsterdam
p1252
F1289700124.38641
S'404 Not Found'
p1253
tp1254
a(VAmsterdam
p1255
F1289786516.4158101
S'404 Not Found'
p1256
tp1257
a(VAmsterdam
p1258
F1289872914.4953649
S'404 Not Found'
p1259
tp1260
a(VAmsterdam
p1261
F1289959309.1140859
S'404 Not Found'
p1262
tp1263
a(VAmsterdam
p1264
F1290045694.547668
S'404 Not Found'
p1265
tp1266
a(VAmsterdam
p1267
F1290132122.2272611
S'404 Not Found'
p1268
tp1269
asVhttp://www.rahhala.net/en/
p1270
(lp1271
(VOnline Resources
p1272
F1289489266.798068
S'404 Not Found'
p1273
tp1274
a(VOnline Resources
p1275
F1289527316.5566039
S'404 Not Found'
p1276
tp1277
a(VOnline Resources
p1278
F1289613741.2688689
S'404 Not Found'
p1279
tp1280
a(VOnline Resources
p1281
F1289700133.049706
S'404 Not Found'
p1282
tp1283
a(VOnline Resources
p1284
F1289786524.730691
S'404 Not Found'
p1285
tp1286
a(VOnline Resources
p1287
F1289872923.2376001
S'404 Not Found'
p1288
tp1289
a(VOnline Resources
p1290
F1289959317.2621009
S'404 Not Found'
p1291
tp1292
a(VOnline Resources
p1293
F1290045703.025537
S'404 Not Found'
p1294
tp1295
a(VOnline Resources
p1296
F1290132276.5173819
S'404 Not Found'
p1297
tp1298
asVhttp://web.mit.edu/mpantazi/www/Final.pdf
p1299
(lp1300
(VTrust
p1301
F1289489247.5556631
S'404 Not Found'
p1302
tp1303
a(VTrust
p1304
F1289527330.044415
S'404 Not Found'
p1305
tp1306
a(VTrust
p1307
F1289613762.1786489
S'404 Not Found'
p1308
tp1309
a(VTrust
p1310
F1289700143.0161631
S'404 Not Found'
p1311
tp1312
a(VTrust
p1313
F1289786536.73861
S'404 Not Found'
p1314
tp1315
a(VTrust
p1316
F1289872941.470443
S'404 Not Found'
p1317
tp1318
a(VTrust
p1319
F1289959329.9744971
S'404 Not Found'
p1320
tp1321
a(VTrust
p1322
F1290045717.8018019
S'404 Not Found'
p1323
tp1324
asVhttp://hitchathering.org/press
p1325
(lp1326
(V6810/Press
p1327
F1289482398.530062
VSocket Error: 'Name or service not known'
p1328
tp1329
a(V6810/Press
p1330
F1289489157.5432091
VSocket Error: 'Name or service not known'
p1331
tp1332
a(V6810/Press
p1333
F1289527299.260438
VSocket Error: 'Name or service not known'
p1334
tp1335
a(V6810/Press
p1336
F1289613718.8025789
VSocket Error: 'Name or service not known'
p1337
tp1338
a(V6810/Press
p1339
F1289700114.3252599
VSocket Error: 'Name or service not known'
p1340
tp1341
a(V6810/Press
p1342
F1289786507.7466111
VSocket Error: 'Name or service not known'
p1343
tp1344
a(V6810/Press
p1345
F1289872903.0199289
VSocket Error: 'Name or service not known'
p1346
tp1347
a(V6810/Press
p1348
F1289959301.3792951
VSocket Error: 'Name or service not known'
p1349
tp1350
a(V6810/Press
p1351
F1290045685.9067979
VSocket Error: 'Name or service not known'
p1352
tp1353
a(V6810/Press
p1354
F1290132094.0591209
VSocket Error: 'Name or service not known'
p1355
tp1356
a(V6810/Press
p1357
F1290165477.6682479
VSocket Error: 'Name or service not known'
p1358
tp1359
a(V6810/Press
p1360
F1290173838.7498641
VSocket Error: 'Name or service not known'
p1361
tp1362
asVhttp://hitchgathering.org/node/add/events
p1363
(lp1364
(g511
F1289489217.161855
S'403 Forbidden'
p1365
tp1366
a(g514
F1289527338.0380239
S'403 Forbidden'
p1367
tp1368
a(g520
F1289700145.4994731
S'403 Forbidden'
p1369
tp1370
a(g523
F1289959358.5249331
S'403 Forbidden'
p1371
tp1372
a(V6810/news
p1373
F1290132338.265691
S'403 Forbidden'
p1374
tp1375
asVhttp://www.hitchwiki.org/en/abgefahren
p1376
(lp1377
(g636
F1289489237.2814889
S'404 Not Found'
p1378
tp1379
a(g639
F1289527323.610563
S'404 Not Found'
p1380
tp1381
a(g642
F1289613747.029182
S'404 Not Found'
p1382
tp1383
a(g645
F1289700136.5873439
S'404 Not Found'
p1384
tp1385
a(g648
F1289786529.7612691
S'404 Not Found'
p1386
tp1387
a(g651
F1289872928.644685
S'404 Not Found'
p1388
tp1389
a(g654
F1289959322.4793611
S'404 Not Found'
p1390
tp1391
a(g657
F1290045707.1328599
S'404 Not Found'
p1392
tp1393
asVhttp://www.mytravelphotos.eu/websites/the789project
p1394
(lp1395
(V789/Website
p1396
F1289482404.535907
S'404 Not Found'
p1397
tp1398
a(V789/Website
p1399
F1289489167.5463049
S'404 Not Found'
p1400
tp1401
a(V789/Website
p1402
F1289527304.6658919
S'404 Not Found'
p1403
tp1404
a(V789/Website
p1405
F1289613724.292186
S'404 Not Found'
p1406
tp1407
a(V789/Website
p1408
F1289700118.92871
S'404 Not Found'
p1409
tp1410
a(V789/Website
p1411
F1289786512.351465
S'404 Not Found'
p1412
tp1413
a(V789/Website
p1414
F1289872908.2105441
S'404 Not Found'
p1415
tp1416
a(V789/Website
p1417
F1289959304.6696811
S'404 Not Found'
p1418
tp1419
a(V789/Website
p1420
F1290045690.103122
S'404 Not Found'
p1421
tp1422
a(V789/Website
p1423
F1290132109.4814739
S'404 Not Found'
p1424
tp1425
asVhttp://www.couchsurfing.com/people/krais
p1426
(lp1427
(g58
F1289489238.4806349
S'404 Not Found'
p1428
tp1429
a(g61
F1289527325.4861929
S'404 Not Found'
p1430
tp1431
a(g64
F1289613752.804673
S'404 Not Found'
p1432
tp1433
a(g67
F1289700138.939919
S'404 Not Found'
p1434
tp1435
a(g70
F1289786532.617044
S'404 Not Found'
p1436
tp1437
a(g73
F1289872933.5757029
S'404 Not Found'
p1438
tp1439
a(g76
F1289959325.0665741
S'404 Not Found'
p1440
tp1441
a(g79
F1290045712.8627119
S'404 Not Found'
p1442
tp1443
asVhttp://www.cts-strasbourg.fr/Portals/0/PDF/horaires/interurbains/hiver/206.pdf
p1444
(lp1445
(VStrasbourg
p1446
F1289489245.8122089
S'404 Not Found'
p1447
tp1448
a(VStrasbourg
p1449
F1289527329.3168681
S'404 Not Found'
p1450
tp1451
a(VStrasbourg
p1452
F1289613761.2575099
S'404 Not Found'
p1453
tp1454
a(VStrasbourg
p1455
F1289700142.2502849
S'404 Not Found'
p1456
tp1457
a(VStrasbourg
p1458
F1289786535.757828
S'404 Not Found'
p1459
tp1460
a(VStrasbourg
p1461
F1289872940.684912
S'404 Not Found'
p1462
tp1463
a(VStrasbourg
p1464
F1289959329.3763371
S'404 Not Found'
p1465
tp1466
a(VStrasbourg
p1467
F1290045717.1955781
S'404 Not Found'
p1468
tp1469
asVhttp://www.smhi.se/cmp/jsp/polopoly.jsp?d=103&l=en
p1470
(lp1471
(VWeather
p1472
F1289489249.8339231
S'404 /cmp/jsp/polopoly.jsp'
p1473
tp1474
a(VWeather
p1475
F1289527330.6778769
S'404 /cmp/jsp/polopoly.jsp'
p1476
tp1477
a(VWeather
p1478
F1289613763.7838371
S'404 /cmp/jsp/polopoly.jsp'
p1479
tp1480
a(VWeather
p1481
F1289700143.6049671
S'404 /cmp/jsp/polopoly.jsp'
p1482
tp1483
a(VWeather
p1484
F1289786537.5231531
S'404 /cmp/jsp/polopoly.jsp'
p1485
tp1486
a(VWeather
p1487
F1289872942.7204299
S'404 /cmp/jsp/polopoly.jsp'
p1488
tp1489
a(VWeather
p1490
F1289959330.8499329
S'404 /cmp/jsp/polopoly.jsp'
p1491
tp1492
a(VWeather
p1493
F1290045718.991643
S'404 /cmp/jsp/polopoly.jsp'
p1494
tp1495
asVhttp://traveloblog.com/trip/ludovic-hubler/asia-afghanistan-kabul-.html
p1496
(lp1497
(VAfghanistan
p1498
F1289489183.855211
S'404 Not Found'
p1499
tp1500
a(VAfghanistan
p1501
F1289527308.7165489
S'404 Not Found'
p1502
tp1503
a(VAfghanistan
p1504
F1289613729.6640899
S'404 Not Found'
p1505
tp1506
a(VAfghanistan
p1507
F1289700124.5027111
S'404 Not Found'
p1508
tp1509
a(VAfghanistan
p1510
F1289786518.4134941
S'404 Not Found'
p1511
tp1512
a(VAfghanistan
p1513
F1289872914.5397329
S'404 Not Found'
p1514
tp1515
a(VAfghanistan
p1516
F1289959309.3453381
S'404 Not Found'
p1517
tp1518
a(VAfghanistan
p1519
F1290045694.7373819
S'404 Not Found'
p1520
tp1521
a(VAfghanistan
p1522
F1290132120.407299
S'404 Not Found'
p1523
tp1524
asVhttp://www.20min.ch/ro/print/story/18636116
p1525
(lp1526
(VViva con Agua
p1527
F1289489249.4407959
S'403 Forbidden'
p1528
tp1529
a(VViva con Agua
p1530
F1289527330.433717
S'403 Forbidden'
p1531
tp1532
a(VViva con Agua
p1533
F1289613763.219012
S'403 Forbidden'
p1534
tp1535
a(VViva con Agua
p1536
F1289700143.382761
S'403 Forbidden'
p1537
tp1538
a(VViva con Agua
p1539
F1289786537.1984551
S'403 Forbidden'
p1540
tp1541
a(VViva con Agua
p1542
F1289872942.258661
S'403 Forbidden'
p1543
tp1544
a(VViva con Agua
p1545
F1289959330.5626719
S'403 Forbidden'
p1546
tp1547
a(VViva con Agua
p1548
F1290045718.5036139
S'403 Forbidden'
p1549
tp1550
asVhttp://www.austlii.edu.au/cgi-bin/disp.pl/au/legis/nsw/consol_reg/rr2008104/s236.html?query=Road%20Rules%202008%20REG%20236
p1551
(lp1552
(VAustralia
p1553
F1289489188.2425351
S'400 Bad Request'
p1554
tp1555
a(VAustralia
p1556
F1289527312.1621349
S'400 Bad Request'
p1557
tp1558
a(VAustralia
p1559
F1289613733.2087021
S'400 Bad Request'
p1560
tp1561
a(VAustralia
p1562
F1289700127.077877
S'400 Bad Request'
p1563
tp1564
a(VAustralia
p1565
F1289786520.052048
S'400 Bad Request'
p1566
tp1567
a(VAustralia
p1568
F1289872917.538461
S'400 Bad Request'
p1569
tp1570
a(VAustralia
p1571
F1289959313.733711
S'400 Bad Request'
p1572
tp1573
a(VAustralia
p1574
F1290045697.46558
S'400 Bad Request'
p1575
tp1576
a(VAustralia
p1577
F1290132138.068594
S'400 Bad Request'
p1578
tp1579
asVhttp://www.cts-strasbourg.fr/Portals/0/PDF/horaires/interurbains/hiver/205.pdf
p1580
(lp1581
(g1446
F1289489245.813349
S'404 Not Found'
p1582
tp1583
a(g1449
F1289527329.3179481
S'404 Not Found'
p1584
tp1585
a(g1452
F1289613761.2581871
S'404 Not Found'
p1586
tp1587
a(g1455
F1289700142.1988699
S'404 Not Found'
p1588
tp1589
a(g1458
F1289786535.7172711
S'404 Not Found'
p1590
tp1591
a(g1461
F1289872940.6728101
S'404 Not Found'
p1592
tp1593
a(g1464
F1289959329.3777111
S'404 Not Found'
p1594
tp1595
a(g1467
F1290045717.2050929
S'404 Not Found'
p1596
tp1597
asVhttp://888.dyndns.info/888/index.php?where=register
p1598
(lp1599
(VProject 888/Cities
p1600
F1289489251.8416131
VSocket Error: 'Connection timed out'
p1601
tp1602
a(VProject 888/Cities
p1603
F1289527338.9537389
VSocket Error: 'Connection timed out'
p1604
tp1605
a(VProject 888/Cities
p1606
F1289613763.993582
VSocket Error: 'Connection timed out'
p1607
tp1608
a(VProject 888/Cities
p1609
F1289700155.0896609
VSocket Error: 'Connection timed out'
p1610
tp1611
a(VProject 888/Cities
p1612
F1289786547.4495521
VSocket Error: 'Connection timed out'
p1613
tp1614
a(VProject 888/Cities
p1615
F1289872945.7136719
VSocket Error: 'Connection timed out'
p1616
tp1617
a(VProject 888/Cities
p1618
F1289959339.607177
VSocket Error: 'Connection timed out'
p1619
tp1620
a(VProject 888/Cities
p1621
F1290045725.101563
VSocket Error: 'Connection timed out'
p1622
tp1623
asVhttp://hitchgathering.org/users/shaun
p1624
(lp1625
(g508
F1289482435.1786849
S'403 Forbidden'
p1626
tp1627
a(g511
F1289489216.68312
S'403 Forbidden'
p1628
tp1629
a(g514
F1289527334.733526
S'403 Forbidden'
p1630
tp1631
a(g520
F1289700142.7833879
S'403 Forbidden'
p1632
tp1633
a(g523
F1289959358.60149
S'403 Forbidden'
p1634
tp1635
asVhttp://www.the789project.com/user/register
p1636
(lp1637
(g989
F1289482400.75455
VSocket Error: 'Temporary failure in name resolution'
p1638
tp1639
a(g992
F1289489160.236686
VSocket Error: 'Temporary failure in name resolution'
p1640
tp1641
a(g995
F1289527301.0098121
VSocket Error: 'Temporary failure in name resolution'
p1642
tp1643
a(g998
F1289613720.600605
VSocket Error: 'Temporary failure in name resolution'
p1644
tp1645
a(g1001
F1289700115.9280939
VSocket Error: 'Temporary failure in name resolution'
p1646
tp1647
a(g1004
F1289786509.2650361
VSocket Error: 'Temporary failure in name resolution'
p1648
tp1649
a(g1007
F1289872904.881691
VSocket Error: 'Temporary failure in name resolution'
p1650
tp1651
a(g1010
F1289959302.8736689
VSocket Error: 'Temporary failure in name resolution'
p1652
tp1653
a(g1013
F1290045687.4888811
VSocket Error: 'Temporary failure in name resolution'
p1654
tp1655
a(g1016
F1290132100.9294529
VSocket Error: 'Temporary failure in name resolution'
p1656
tp1657
asVhttp://abgefahren.hitchbase.com/node/191
p1658
(lp1659
(VSpeed Hitchhiking
p1660
F1289489248.6979971
S'403 Forbidden'
p1661
tp1662
a(VSpeed Hitchhiking
p1663
F1289527329.6626091
S'403 Forbidden'
p1664
tp1665
a(VSpeed Hitchhiking
p1666
F1289613761.7675619
S'403 Forbidden'
p1667
tp1668
a(VSpeed Hitchhiking
p1669
F1289700142.7077501
S'403 Forbidden'
p1670
tp1671
a(VSpeed Hitchhiking
p1672
F1289786536.184788
S'403 Forbidden'
p1673
tp1674
a(VSpeed Hitchhiking
p1675
F1289872941.0634241
S'403 Forbidden'
p1676
tp1677
a(VSpeed Hitchhiking
p1678
F1289959329.581646
S'403 Forbidden'
p1679
tp1680
a(VSpeed Hitchhiking
p1681
F1290045717.252167
S'403 Forbidden'
p1682
tp1683
asVhttp://transit.metrokc.gov
p1684
(lp1685
(VSeattle
p1686
F1289489242.831655
VSocket Error: 'Name or service not known'
p1687
tp1688
a(VSeattle
p1689
F1289527328.0941131
VSocket Error: 'Name or service not known'
p1690
tp1691
a(VSeattle
p1692
F1289613759.7879491
VSocket Error: 'Name or service not known'
p1693
tp1694
a(VSeattle
p1695
F1289700141.336731
VSocket Error: 'Name or service not known'
p1696
tp1697
a(VSeattle
p1698
F1289786535.102392
VSocket Error: 'Name or service not known'
p1699
tp1700
a(VSeattle
p1701
F1289872939.6520841
VSocket Error: 'Name or service not known'
p1702
tp1703
a(VSeattle
p1704
F1289959328.384639
VSocket Error: 'Name or service not known'
p1705
tp1706
a(VSeattle
p1707
F1290045715.6395631
VSocket Error: 'Name or service not known'
p1708
tp1709
asVhttp://www.masspike.com/maps.html
p1710
(lp1711
(VBoston
p1712
F1289489193.4743121
S'404 Not Found'
p1713
tp1714
a(VBoston
p1715
F1289527311.9495959
S'404 Not Found'
p1716
tp1717
a(VBoston
p1718
F1289613733.834403
S'404 Not Found'
p1719
tp1720
a(VBoston
p1721
F1289700127.7569339
S'404 Not Found'
p1722
tp1723
a(VBoston
p1724
F1289786520.102145
S'404 Not Found'
p1725
tp1726
a(VBoston
p1727
F1289872917.7281289
S'404 Not Found'
p1728
tp1729
a(VBoston
p1730
F1289959312.5757289
S'404 Not Found'
p1731
tp1732
a(VBoston
p1733
F1290045697.31545
S'404 Not Found'
p1734
tp1735
a(VBoston
p1736
F1290132163.4226079
S'404 Not Found'
p1737
tp1738
asVhttp://forum.mainroad.org.ua/forum/
p1739
(lp1740
(g319
F1289482397.6560121
VSocket Error: 'Name or service not known'
p1741
tp1742
a(g322
F1289489156.6101029
VSocket Error: 'Name or service not known'
p1743
tp1744
a(g325
F1289527298.7413361
VSocket Error: 'Name or service not known'
p1745
tp1746
a(g328
F1289613718.2087409
VSocket Error: 'Name or service not known'
p1747
tp1748
a(g331
F1289700113.9423349
VSocket Error: 'Name or service not known'
p1749
tp1750
a(g334
F1289786507.2266481
VSocket Error: 'Name or service not known'
p1751
tp1752
a(g337
F1289872902.7109261
VSocket Error: 'Name or service not known'
p1753
tp1754
a(g340
F1289959300.9666109
VSocket Error: 'Name or service not known'
p1755
tp1756
a(g343
F1290045685.480366
VSocket Error: 'Name or service not known'
p1757
tp1758
a(g346
F1290132087.3523159
VSocket Error: 'Name or service not known'
p1759
tp1760
a(g349
F1290165470.6605361
VSocket Error: 'Name or service not known'
p1761
tp1762
a(g605
F1290173835.0284779
VSocket Error: 'Name or service not known'
p1763
tp1764
asVhttp://www.the789project.com
p1765
(lp1766
(g1396
F1289482403.350081
VSocket Error: 'Temporary failure in name resolution'
p1767
tp1768
a(g1399
F1289489165.3660679
VSocket Error: 'Temporary failure in name resolution'
p1769
tp1770
a(g1402
F1289527303.281671
VSocket Error: 'Temporary failure in name resolution'
p1771
tp1772
a(g1405
F1289613723.3129909
VSocket Error: 'Temporary failure in name resolution'
p1773
tp1774
a(g1408
F1289700118.0548019
VSocket Error: 'Temporary failure in name resolution'
p1775
tp1776
a(g1411
F1289786510.9637229
VSocket Error: 'Temporary failure in name resolution'
p1777
tp1778
a(g1414
F1289872906.8368001
VSocket Error: 'Temporary failure in name resolution'
p1779
tp1780
a(g1417
F1289959304.075356
VSocket Error: 'Temporary failure in name resolution'
p1781
tp1782
a(g1420
F1290045688.924753
VSocket Error: 'Temporary failure in name resolution'
p1783
tp1784
a(g1423
F1290132108.9611261
VSocket Error: 'Temporary failure in name resolution'
p1785
tp1786
asVhttp://the789project.eu
p1787
(lp1788
(g989
F1289482401.2834949
VSocket Error: 'Name or service not known'
p1789
tp1790
a(g992
F1289489160.8169241
VSocket Error: 'Name or service not known'
p1791
tp1792
a(g995
F1289527301.114099
VSocket Error: 'Name or service not known'
p1793
tp1794
a(g998
F1289613720.8087039
VSocket Error: 'Name or service not known'
p1795
tp1796
a(g1001
F1289700116.2184229
VSocket Error: 'Name or service not known'
p1797
tp1798
a(g1004
F1289786509.402463
VSocket Error: 'Name or service not known'
p1799
tp1800
a(g1007
F1289872905.0812149
VSocket Error: 'Name or service not known'
p1801
tp1802
a(g1010
F1289959303.000196
VSocket Error: 'Name or service not known'
p1803
tp1804
a(g1013
F1290045687.5095699
VSocket Error: 'Name or service not known'
p1805
tp1806
a(g1016
F1290132105.645009
VSocket Error: 'Name or service not known'
p1807
tp1808
asVhttp://mkvrt.hu
p1809
(lp1810
(VMiskolc
p1811
F1289489223.5322011
VSocket Error: 'Name or service not known'
p1812
tp1813
a(VMiskolc
p1814
F1289527315.0386159
VSocket Error: 'Name or service not known'
p1815
tp1816
a(VMiskolc
p1817
F1289613739.4317429
VSocket Error: 'Name or service not known'
p1818
tp1819
a(VMiskolc
p1820
F1289700131.2912321
VSocket Error: 'Name or service not known'
p1821
tp1822
a(VMiskolc
p1823
F1289786523.37185
VSocket Error: 'Name or service not known'
p1824
tp1825
a(VMiskolc
p1826
F1289872921.7185531
VSocket Error: 'Name or service not known'
p1827
tp1828
a(VMiskolc
p1829
F1289959316.0587339
VSocket Error: 'Name or service not known'
p1830
tp1831
a(VMiskolc
p1832
F1290045701.696821
VSocket Error: 'Name or service not known'
p1833
tp1834
a(VMiskolc
p1835
F1290132230.7524619
VSocket Error: 'Name or service not known'
p1836
tp1837
asVhttp://www.bkv.hu/english/busz/94gyors.html
p1838
(lp1839
(g252
F1289489219.7055399
VSocket Error: 'Connection timed out'
p1840
tp1841
a(g255
F1289527314.2508481
S'404 Not Found'
p1842
tp1843
a(g258
F1289613736.3615699
S'404 Not Found'
p1844
tp1845
a(g261
F1289700130.1373141
S'404 Not Found'
p1846
tp1847
a(g264
F1289786522.4046619
S'404 Not Found'
p1848
tp1849
a(g267
F1289872922.258568
S'404 Not Found'
p1850
tp1851
a(g270
F1289959312.163975
S'404 Not Found'
p1852
tp1853
a(g273
F1290045696.6353941
S'404 Not Found'
p1854
tp1855
a(g276
F1290132159.0305319
S'404 Not Found'
p1856
tp1857
asVhttp://www.voyages-weber.lu/bus/rgtr/
p1858
(lp1859
(VTrier
p1860
F1289489247.2925789
S'404 Not Found'
p1861
tp1862
a(VTrier
p1863
F1289527329.7810781
S'404 Not Found'
p1864
tp1865
a(VTrier
p1866
F1289613766.70315
S'404 Not Found'
p1867
tp1868
a(VTrier
p1869
F1289700142.7782381
S'404 Not Found'
p1870
tp1871
a(VTrier
p1872
F1289786536.4824009
S'404 Not Found'
p1873
tp1874
a(VTrier
p1875
F1289872941.2681401
S'404 Not Found'
p1876
tp1877
a(VTrier
p1878
F1289959334.7805331
S'404 Not Found'
p1879
tp1880
a(VTrier
p1881
F1290045717.5495889
S'404 Not Found'
p1882
tp1883
asVhttp://www.maerkischeallgemeine.de/cms/beitrag/11238673/62249/Zwei_Studenten_kaempfen_fuer_eine_Tramper_Haltestelle_an.html
p1884
(lp1885
(VPotsdam
p1886
F1289489230.1905749
S'404 not found'
p1887
tp1888
a(VPotsdam
p1889
F1289527318.0211411
S'404 not found'
p1890
tp1891
a(VPotsdam
p1892
F1289613743.042599
S'404 not found'
p1893
tp1894
a(VPotsdam
p1895
F1289700134.097856
S'404 not found'
p1896
tp1897
a(VPotsdam
p1898
F1289786525.9049151
S'404 not found'
p1899
tp1900
a(VPotsdam
p1901
F1289872924.7962151
S'404 not found'
p1902
tp1903
a(VPotsdam
p1904
F1289959318.5640509
S'404 not found'
p1905
tp1906
a(VPotsdam
p1907
F1290045704.2424321
S'404 not found'
p1908
tp1909
a(VPotsdam
p1910
F1290132319.643157
S'404 not found'
p1911
tp1912
asVhttp://e67.times.lv/Web
p1913
(lp1914
(g778
F1289489177.2692449
S'404 Not Found'
p1915
tp1916
a(g781
F1289527307.8675821
S'404 Not Found'
p1917
tp1918
a(g784
F1289613728.670192
S'404 Not Found'
p1919
tp1920
a(g787
F1289700123.280978
S'404 Not Found'
p1921
tp1922
a(g790
F1289786515.5606091
S'404 Not Found'
p1923
tp1924
a(g793
F1289872917.8320601
S'404 Not Found'
p1925
tp1926
a(g796
F1289959308.168946
S'404 Not Found'
p1927
tp1928
a(g799
F1290045694.122355
S'404 Not Found'
p1929
tp1930
a(g802
F1290132115.9545341
S'404 Not Found'
p1931
tp1932
asVhttp://www.tribunedelyon.fr/index.php
p1933
(lp1934
(g605
F1290173836.5337059
VHTTP Error: BadStatusLine
p1935
tp1936
asVhttp://vimeo.com/7858456
p1937
(lp1938
(g1527
F1289489249.539722
S'404 Not Found'
p1939
tp1940
a(g1530
F1289527330.6659379
S'404 Not Found'
p1941
tp1942
a(g1533
F1289613763.018465
S'404 Not Found'
p1943
tp1944
a(g1536
F1289700143.825593
S'404 Not Found'
p1945
tp1946
a(g1539
F1289786537.2280619
S'404 Not Found'
p1947
tp1948
a(g1542
F1289872942.2645371
S'404 Not Found'
p1949
tp1950
a(g1545
F1289959330.661422
S'404 Not Found'
p1951
tp1952
a(g1548
F1290045718.5769711
S'404 Not Found'
p1953
tp1954
asVhttp://nomadbase.org/)
p1955
(lp1956
(VHitchgathering/2011/Evaluation
p1957
F1289489271.5281751
S'404 Not Found'
p1958
tp1959
a(VHitchgathering/2011/Evaluation
p1960
F1289700141.9943249
S'404 Not Found'
p1961
tp1962
a(VHitchgathering/2011/Evaluation
p1963
F1289959356.4409561
S'404 Not Found'
p1964
tp1965
asVhttp://www.relais.ucl.ac.be/
p1966
(lp1967
(VLouvain-la-Neuve
p1968
F1289489220.0091381
S'403 Forbidden'
p1969
tp1970
a(VLouvain-la-Neuve
p1971
F1289527314.9510691
S'403 Forbidden'
p1972
tp1973
a(VLouvain-la-Neuve
p1974
F1289613739.2839639
S'403 Forbidden'
p1975
tp1976
a(VLouvain-la-Neuve
p1977
F1289700131.1034009
S'403 Forbidden'
p1978
tp1979
a(VLouvain-la-Neuve
p1980
F1289786523.219332
S'403 Forbidden'
p1981
tp1982
a(VLouvain-la-Neuve
p1983
F1289872921.6446841
S'403 Forbidden'
p1984
tp1985
a(VLouvain-la-Neuve
p1986
F1289959316.130929
S'403 Forbidden'
p1987
tp1988
a(VLouvain-la-Neuve
p1989
F1290045701.479614
S'403 Forbidden'
p1990
tp1991
a(VLouvain-la-Neuve
p1992
F1290132225.6070099
S'403 Forbidden'
p1993
tp1994
asVhttp://www.rbb-online.de/_/zibb/beitrag_jsp/key=6569563.html
p1995
(lp1996
(g528
F1289489180.41153
S'404 Not Found'
p1997
tp1998
a(g531
F1289527308.107563
S'404 Not Found'
p1999
tp2000
a(g534
F1289613728.642354
S'404 Not Found'
p2001
tp2002
a(g537
F1289700123.4921689
S'404 Not Found'
p2003
tp2004
a(g540
F1289786515.737541
S'404 Not Found'
p2005
tp2006
a(g543
F1289872913.06025
S'404 Not Found'
p2007
tp2008
a(g546
F1289959308.9305539
S'404 Not Found'
p2009
tp2010
a(g549
F1290045693.835331
S'404 Not Found'
p2011
tp2012
a(g552
F1290132118.015837
S'404 Not Found'
p2013
tp2014
asVhttp://www.crossculturedtraveler.com/archives/JUN2002/Lead_Story.htm
p2015
(lp2016
(VPierre Trudeau
p2017
F1289489229.171149
VSocket Error: 'Temporary failure in name resolution'
p2018
tp2019
a(VPierre Trudeau
p2020
F1289527317.7336991
VSocket Error: 'Temporary failure in name resolution'
p2021
tp2022
a(VPierre Trudeau
p2023
F1289613742.6869891
VSocket Error: 'Temporary failure in name resolution'
p2024
tp2025
a(VPierre Trudeau
p2026
F1289700133.679548
VSocket Error: 'Temporary failure in name resolution'
p2027
tp2028
a(VPierre Trudeau
p2029
F1289786525.43944
VSocket Error: 'Temporary failure in name resolution'
p2030
tp2031
a(VPierre Trudeau
p2032
F1289872924.539361
VSocket Error: 'Temporary failure in name resolution'
p2033
tp2034
a(VPierre Trudeau
p2035
F1289959318.4218919
VSocket Error: 'Temporary failure in name resolution'
p2036
tp2037
a(VPierre Trudeau
p2038
F1290045703.9391069
VSocket Error: 'Temporary failure in name resolution'
p2039
tp2040
a(VPierre Trudeau
p2041
F1290132307.1144669
VSocket Error: 'Temporary failure in name resolution'
p2042
tp2043
asVhttp://www.moesbooks.com/moes/
p2044
(lp2045
(VBay Area
p2046
F1289489186.963907
S'404 Not Found'
p2047
tp2048
a(VBay Area
p2049
F1289527311.1612959
S'404 Not Found'
p2050
tp2051
a(VBay Area
p2052
F1289613736.9313321
S'404 Not Found'
p2053
tp2054
a(VBay Area
p2055
F1289700126.0680699
S'404 Not Found'
p2056
tp2057
a(VBay Area
p2058
F1289786518.3325369
S'404 Not Found'
p2059
tp2060
a(VBay Area
p2061
F1289872916.6197081
S'404 Not Found'
p2062
tp2063
a(VBay Area
p2064
F1289959310.9109941
S'404 Not Found'
p2065
tp2066
a(VBay Area
p2067
F1290045696.0763209
S'404 Not Found'
p2068
tp2069
a(VBay Area
p2070
F1290132136.6267879
S'404 Not Found'
p2071
tp2072
asVhttp://hitchhikers.org
p2073
(lp2074
(VRideshare
p2075
F1289489262.1697021
VSocket Error: 'Connection timed out'
p2076
tp2077
a(VRideshare
p2078
F1289527348.0896411
VSocket Error: 'Connection timed out'
p2079
tp2080
a(VRideshare
p2081
F1289613778.1827681
VSocket Error: 'Connection timed out'
p2082
tp2083
a(VRideshare
p2084
F1289700161.3505819
VSocket Error: 'Connection timed out'
p2085
tp2086
a(VRideshare
p2087
F1289786555.0665779
VSocket Error: 'Connection timed out'
p2088
tp2089
a(VRideshare
p2090
F1289872958.585505
VSocket Error: 'Connection timed out'
p2091
tp2092
a(VRideshare
p2093
F1289959348.398633
VSocket Error: 'Connection timed out'
p2094
tp2095
a(VRideshare
p2096
F1290045735.7376871
VSocket Error: 'Connection timed out'
p2097
tp2098
asVhttp://www.wlb.at/fahrplaene.aspx
p2099
(lp2100
(g3
F1289489248.849282
S'404 Not Found'
p2101
tp2102
a(g6
F1289527329.9145169
S'404 Not Found'
p2103
tp2104
a(g9
F1289613762.18027
S'404 Not Found'
p2105
tp2106
a(g12
F1289700142.9861901
S'404 Not Found'
p2107
tp2108
a(g15
F1289786536.600121
S'404 Not Found'
p2109
tp2110
a(g18
F1289872941.4290681
S'404 Not Found'
p2111
tp2112
a(g21
F1289959330.0336571
S'404 Not Found'
p2113
tp2114
a(g24
F1290045718.2432001
S'404 Not Found'
p2115
tp2116
asVhttp://www.bevolunteer.org/wiki/Carrefour_des_Cultures_2
p2117
(lp2118
(g799
F1290045692.677341
VSocket Error: 'Connection refused'
p2119
tp2120
a(g802
F1290132111.406729
VSocket Error: 'Connection refused'
p2121
tp2122
asVhttp://www.traveline.org.uk/index.htm)
p2123
(lp2124
(VManchester
p2125
F1289489221.0220251
S'404 Not Found'
p2126
tp2127
a(VManchester
p2128
F1289527315.326426
S'404 Not Found'
p2129
tp2130
a(VManchester
p2131
F1289613739.6685939
S'404 Not Found'
p2132
tp2133
a(VManchester
p2134
F1289700131.6418641
S'404 Not Found'
p2135
tp2136
a(VManchester
p2137
F1289786523.5780101
S'404 Not Found'
p2138
tp2139
a(VManchester
p2140
F1289872922.1446149
S'404 Not Found'
p2141
tp2142
a(VManchester
p2143
F1289959316.307729
S'404 Not Found'
p2144
tp2145
a(VManchester
p2146
F1290045701.8320129
S'404 Not Found'
p2147
tp2148
a(VManchester
p2149
F1290132228.250613
S'404 Not Found'
p2150
tp2151
asVhttp://www.tesco.pl/sklepy-tesco/sklepy/wroclaw-bielany/wroclaw-bielany.html#
p2152
(lp2153
(g229
F1289489251.409441
S'404 Not Found'
p2154
tp2155
a(g232
F1289613764.1217179
S'404 Not Found'
p2156
tp2157
a(g235
F1289700148.920476
S'404 Not Found'
p2158
tp2159
a(g238
F1289786537.451417
S'404 Not Found'
p2160
tp2161
a(g241
F1289872942.6741641
S'404 Not Found'
p2162
tp2163
a(g244
F1289959331.2256119
S'404 Not Found'
p2164
tp2165
a(g247
F1290045719.255002
S'404 Not Found'
p2166
tp2167
asVhttp://www.the789project.com/forum
p2168
(lp2169
(g989
F1289482400.845305
VSocket Error: 'Temporary failure in name resolution'
p2170
tp2171
a(g992
F1289489160.345943
VSocket Error: 'Temporary failure in name resolution'
p2172
tp2173
a(g995
F1289527300.850651
VSocket Error: 'Temporary failure in name resolution'
p2174
tp2175
a(g998
F1289613720.5695741
VSocket Error: 'Temporary failure in name resolution'
p2176
tp2177
a(g1001
F1289700116.0194359
VSocket Error: 'Temporary failure in name resolution'
p2178
tp2179
a(g1004
F1289786509.2507679
VSocket Error: 'Temporary failure in name resolution'
p2180
tp2181
a(g1007
F1289872904.9378369
VSocket Error: 'Temporary failure in name resolution'
p2182
tp2183
a(g1010
F1289959302.872752
VSocket Error: 'Temporary failure in name resolution'
p2184
tp2185
a(g1013
F1290045692.2039931
VSocket Error: 'Temporary failure in name resolution'
p2186
tp2187
a(g1016
F1290132102.027257
VSocket Error: 'Temporary failure in name resolution'
p2188
tp2189
asVhttp://www.race2amsterdam.co.uk/
p2190
(lp2191
(VHitchhiking races
p2192
F1289489211.582298
VSocket Error: 'Name or service not known'
p2193
tp2194
a(VHitchhiking races
p2195
F1289527313.30056
VSocket Error: 'Name or service not known'
p2196
tp2197
a(VHitchhiking races
p2198
F1289613736.4661429
VSocket Error: 'Name or service not known'
p2199
tp2200
a(VHitchhiking races
p2201
F1289700129.3716249
VSocket Error: 'Name or service not known'
p2202
tp2203
a(VHitchhiking races
p2204
F1289786521.4699571
VSocket Error: 'Name or service not known'
p2205
tp2206
a(VHitchhiking races
p2207
F1289872919.556622
VSocket Error: 'Name or service not known'
p2208
tp2209
a(VHitchhiking races
p2210
F1289959314.0898709
VSocket Error: 'Name or service not known'
p2211
tp2212
a(VHitchhiking races
p2213
F1290045698.922473
VSocket Error: 'Name or service not known'
p2214
tp2215
a(VHitchhiking races
p2216
F1290132186.5758359
VSocket Error: 'Name or service not known'
p2217
tp2218
asVhttp://www.the789project.com/
p2219
(lp2220
(V789
p2221
F1289482400.325253
VSocket Error: 'Temporary failure in name resolution'
p2222
tp2223
a(V789
p2224
F1289489159.3916559
VSocket Error: 'Temporary failure in name resolution'
p2225
tp2226
a(V789
p2227
F1289527300.8423071
VSocket Error: 'Temporary failure in name resolution'
p2228
tp2229
a(V789
p2230
F1289613720.5759411
VSocket Error: 'Temporary failure in name resolution'
p2231
tp2232
a(V789
p2233
F1289700116.018594
VSocket Error: 'Temporary failure in name resolution'
p2234
tp2235
a(V789
p2236
F1289786509.197891
VSocket Error: 'Temporary failure in name resolution'
p2237
tp2238
a(V789
p2239
F1289872904.851759
VSocket Error: 'Temporary failure in name resolution'
p2240
tp2241
a(V789
p2242
F1289959302.8225949
VSocket Error: 'Temporary failure in name resolution'
p2243
tp2244
a(V789
p2245
F1290045687.465102
VSocket Error: 'Temporary failure in name resolution'
p2246
tp2247
a(V789
p2248
F1290132100.0635159
VSocket Error: 'Temporary failure in name resolution'
p2249
tp2250
a(V789
p2251
F1290165485.016963
VSocket Error: 'Temporary failure in name resolution'
p2252
tp2253
asVhttp://forum.mainroad.org.ua/forum/viewtopic.php?p=35961#35961
p2254
(lp2255
(g778
F1289489170.773468
VSocket Error: 'Name or service not known'
p2256
tp2257
a(g781
F1289527305.6255939
VSocket Error: 'Name or service not known'
p2258
tp2259
a(g784
F1289613726.1305139
VSocket Error: 'Name or service not known'
p2260
tp2261
a(g787
F1289700120.5833509
VSocket Error: 'Name or service not known'
p2262
tp2263
a(g790
F1289786513.6821129
VSocket Error: 'Name or service not known'
p2264
tp2265
a(g793
F1289872909.7406011
VSocket Error: 'Name or service not known'
p2266
tp2267
a(g796
F1289959306.292455
VSocket Error: 'Name or service not known'
p2268
tp2269
a(g799
F1290045692.03719
VSocket Error: 'Name or service not known'
p2270
tp2271
a(g802
F1290132111.050988
VSocket Error: 'Name or service not known'
p2272
tp2273
asVhttp://www.traversiers.gouv.qc.ca/trav/quebec/index.asp
p2274
(lp2275
(VLevis
p2276
F1289489218.7086339
S'404 Not Found'
p2277
tp2278
a(VLevis
p2279
F1289527314.812295
S'404 Not Found'
p2280
tp2281
a(VLevis
p2282
F1289613738.516438
S'404 Not Found'
p2283
tp2284
a(VLevis
p2285
F1289700130.875181
S'404 Not Found'
p2286
tp2287
a(VLevis
p2288
F1289786523.1113141
S'404 Not Found'
p2289
tp2290
a(VLevis
p2291
F1289872921.3296311
S'404 Not Found'
p2292
tp2293
a(VLevis
p2294
F1289959315.650202
S'404 Not Found'
p2295
tp2296
a(VLevis
p2297
F1290045701.0935891
S'404 Not Found'
p2298
tp2299
a(VLevis
p2300
F1290132211.6083491
S'404 Not Found'
p2301
tp2302
asVhttp://abgefahren.hitchbase.com/node/376
p2303
(lp2304
(VOne page guide to safe hitchhiking
p2305
F1289489226.9701321
S'403 Forbidden'
p2306
tp2307
a(VOne page guide to safe hitchhiking
p2308
F1289527320.2395179
S'403 Forbidden'
p2309
tp2310
a(VOne page guide to safe hitchhiking
p2311
F1289613740.8824861
S'403 Forbidden'
p2312
tp2313
a(VOne page guide to safe hitchhiking
p2314
F1289700134.17327
S'403 Forbidden'
p2315
tp2316
a(VOne page guide to safe hitchhiking
p2317
F1289786524.7534029
S'403 Forbidden'
p2318
tp2319
a(VOne page guide to safe hitchhiking
p2320
F1289872922.566134
S'403 Forbidden'
p2321
tp2322
a(VOne page guide to safe hitchhiking
p2323
F1289959316.7935181
S'403 Forbidden'
p2324
tp2325
a(VOne page guide to safe hitchhiking
p2326
F1290045702.3798151
S'403 Forbidden'
p2327
tp2328
a(VOne page guide to safe hitchhiking
p2329
F1290132245.977814
S'403 Forbidden'
p2330
tp2331
asVhttp://www.jyvaskyla.fi/tiedotus/human_tech_city/index.php/2005-02
p2332
(lp2333
(VJyvskyl
p2334
F1289489217.7893579
S'404 Not Found'
p2335
tp2336
a(VJyvskyl
p2337
F1289527314.1833911
S'404 Not Found'
p2338
tp2339
a(VJyvskyl
p2340
F1289613737.833533
S'404 Not Found'
p2341
tp2342
a(VJyvskyl
p2343
F1289700130.418761
S'404 Not Found'
p2344
tp2345
a(VJyvskyl
p2346
F1289786522.455363
S'404 Not Found'
p2347
tp2348
a(VJyvskyl
p2349
F1289872920.7466331
S'404 Not Found'
p2350
tp2351
a(VJyvskyl
p2352
F1289959315.121666
S'404 Not Found'
p2353
tp2354
a(VJyvskyl
p2355
F1290045700.583919
S'404 Not Found'
p2356
tp2357
a(VJyvskyl
p2358
F1290132207.1521261
S'404 Not Found'
p2359
tp2360
asVhttp://www.lapland.fi/frontpage
p2361
(lp2362
(VLapland (Finland)
p2363
F1289489218.960808
S'404 Not Found'
p2364
tp2365
a(VLapland (Finland)
p2366
F1289527315.1349189
S'404 Not Found'
p2367
tp2368
a(VLapland (Finland)
p2369
F1289613738.8600299
S'404 Not Found'
p2370
tp2371
a(VLapland (Finland)
p2372
F1289700131.1582119
S'404 Not Found'
p2373
tp2374
a(VLapland (Finland)
p2375
F1289786523.6339741
S'404 Not Found'
p2376
tp2377
a(VLapland (Finland)
p2378
F1289872921.6945961
S'404 Not Found'
p2379
tp2380
a(VLapland (Finland)
p2381
F1289959315.899919
S'404 Not Found'
p2382
tp2383
a(VLapland (Finland)
p2384
F1290045701.336534
S'404 Not Found'
p2385
tp2386
a(VLapland (Finland)
p2387
F1290132207.741925
S'404 Not Found'
p2388
tp2389
asVhttp://www.couchsurfing.com/people/wtvisser
p2390
(lp2391
(g58
F1289489240.296767
S'404 Not Found'
p2392
tp2393
a(g61
F1289527326.9165499
S'404 Not Found'
p2394
tp2395
a(g64
F1289613755.8835969
S'404 Not Found'
p2396
tp2397
a(g67
F1289700140.4730029
S'404 Not Found'
p2398
tp2399
a(g70
F1289786534.097811
S'404 Not Found'
p2400
tp2401
a(g73
F1289872936.4700861
S'404 Not Found'
p2402
tp2403
a(g76
F1289959327.0478699
S'404 Not Found'
p2404
tp2405
a(g79
F1290045714.640667
S'404 Not Found'
p2406
tp2407
asVhttps://www.stadtwerke-reutlingen.de/rsv/bilder/pdfs/Liniennetzplan1.pdf
p2408
(lp2409
(VReutlingen
p2410
F1289489241.100744
S'404 Not Found'
p2411
tp2412
a(VReutlingen
p2413
F1289527327.1166551
S'404 Not Found'
p2414
tp2415
a(VReutlingen
p2416
F1289613757.08845
S'404 Not Found'
p2417
tp2418
a(VReutlingen
p2419
F1289700140.462085
S'404 Not Found'
p2420
tp2421
a(VReutlingen
p2422
F1289786534.1905351
S'404 Not Found'
p2423
tp2424
a(VReutlingen
p2425
F1289872937.4912231
S'404 Not Found'
p2426
tp2427
a(VReutlingen
p2428
F1289959327.2834461
S'404 Not Found'
p2429
tp2430
a(VReutlingen
p2431
F1290045714.6509819
S'404 Not Found'
p2432
tp2433
asVhttp://abgefahren.hitchbase.com/DE/blogs/alex/20090213/just-hitching-rides-a-journey-eid-christmas
p2434
(lp2435
(VMiddle East
p2436
F1289489224.933979
S'404 Not Found'
p2437
tp2438
a(VMiddle East
p2439
F1289527317.7842071
S'404 Not Found'
p2440
tp2441
a(VMiddle East
p2442
F1289613740.5611141
S'404 Not Found'
p2443
tp2444
a(VMiddle East
p2445
F1289700133.780808
S'404 Not Found'
p2446
tp2447
a(VMiddle East
p2448
F1289786524.522686
S'404 Not Found'
p2449
tp2450
a(VMiddle East
p2451
F1289872922.3003769
S'404 Not Found'
p2452
tp2453
a(VMiddle East
p2454
F1289959316.515219
S'404 Not Found'
p2455
tp2456
a(VMiddle East
p2457
F1290045702.0726089
S'404 Not Found'
p2458
tp2459
a(VMiddle East
p2460
F1290132229.628751
S'404 Not Found'
p2461
tp2462
asVhttp://www.bkv.hu/english/troli/74vissza.html
p2463
(lp2464
(g252
F1289489225.48244
VSocket Error: 'Connection timed out'
p2465
tp2466
a(g255
F1289527314.2626729
S'404 Not Found'
p2467
tp2468
a(g258
F1289613736.5229981
S'404 Not Found'
p2469
tp2470
a(g261
F1289700130.1329501
S'404 Not Found'
p2471
tp2472
a(g264
F1289786522.4297791
S'404 Not Found'
p2473
tp2474
a(g267
F1289872920.3106411
S'404 Not Found'
p2475
tp2476
a(g270
F1289959315.177757
S'404 Not Found'
p2477
tp2478
a(g273
F1290045699.7626331
S'404 Not Found'
p2479
tp2480
a(g276
F1290132159.5279291
S'404 Not Found'
p2481
tp2482
asVhttp://www.asa-programm.de/en/aboutasa/partners.html
p2483
(lp2484
(VEurizons
p2485
F1289489202.1664569
S'404 Not Found'
p2486
tp2487
a(VEurizons
p2488
F1289527311.7957261
S'404 Not Found'
p2489
tp2490
a(VEurizons
p2491
F1289613733.8324571
S'404 Not Found'
p2492
tp2493
a(VEurizons
p2494
F1289700127.476239
S'404 Not Found'
p2495
tp2496
a(VEurizons
p2497
F1289786519.8493049
S'404 Not Found'
p2498
tp2499
a(VEurizons
p2500
F1289872917.7561359
S'404 Not Found'
p2501
tp2502
a(VEurizons
p2503
F1289959312.577667
S'404 Not Found'
p2504
tp2505
a(VEurizons
p2506
F1290045697.0127931
S'404 Not Found'
p2507
tp2508
a(VEurizons
p2509
F1290132168.1880591
S'404 Not Found'
p2510
tp2511
asVhttp://vilniustransport.lt/images/mrweb_1.gif
p2512
(lp2513
(VVilnius
p2514
F1289489249.0636489
S'404 Not Found'
p2515
tp2516
a(VVilnius
p2517
F1289527330.343401
S'404 Not Found'
p2518
tp2519
a(VVilnius
p2520
F1289613762.516057
S'404 Not Found'
p2521
tp2522
a(VVilnius
p2523
F1289700143.1913929
S'404 Not Found'
p2524
tp2525
a(VVilnius
p2526
F1289786536.9144499
S'404 Not Found'
p2527
tp2528
a(VVilnius
p2529
F1289872942.5147991
S'404 Not Found'
p2530
tp2531
a(VVilnius
p2532
F1289959330.1348751
S'404 Not Found'
p2533
tp2534
a(VVilnius
p2535
F1290045718.027668
S'404 Not Found'
p2536
tp2537
asVhttp://www.vihreahaltijatar.fi/
p2538
(lp2539
(g2334
F1289489217.272424
VSocket Error: 'Name or service not known'
p2540
tp2541
a(g2337
F1289527313.8663681
VSocket Error: 'Name or service not known'
p2542
tp2543
a(g2340
F1289613737.237576
VSocket Error: 'Name or service not known'
p2544
tp2545
a(g2343
F1289700129.8323591
VSocket Error: 'Name or service not known'
p2546
tp2547
a(g2346
F1289786522.032362
VSocket Error: 'Name or service not known'
p2548
tp2549
a(g2349
F1289872920.201021
VSocket Error: 'Name or service not known'
p2550
tp2551
a(g2352
F1289959314.5800631
VSocket Error: 'Name or service not known'
p2552
tp2553
a(g2355
F1290045699.8620181
VSocket Error: 'Name or service not known'
p2554
tp2555
a(g2358
F1290132197.724118
VSocket Error: 'Name or service not known'
p2556
tp2557
asVhttp://the789project.eu/
p2558
(lp2559
(g1396
F1289482403.0467169
VSocket Error: 'Name or service not known'
p2560
tp2561
a(g1399
F1289489163.9618421
VSocket Error: 'Name or service not known'
p2562
tp2563
a(g1402
F1289527303.1726551
VSocket Error: 'Name or service not known'
p2564
tp2565
a(g1405
F1289613723.0145781
VSocket Error: 'Name or service not known'
p2566
tp2567
a(g1408
F1289700117.9457181
VSocket Error: 'Name or service not known'
p2568
tp2569
a(g1411
F1289786510.5784941
VSocket Error: 'Name or service not known'
p2570
tp2571
a(g1414
F1289872906.4402831
VSocket Error: 'Name or service not known'
p2572
tp2573
a(g1417
F1289959303.8865941
VSocket Error: 'Name or service not known'
p2574
tp2575
a(g1420
F1290045688.816458
VSocket Error: 'Name or service not known'
p2576
tp2577
a(g1423
F1290132106.0156391
VSocket Error: 'Name or service not known'
p2578
tp2579
asVhttp://ve.free-travels.ru/articles/item.php%3Fcountry%3Droadcntm9
p2580
(lp2581
(VM9 (Russia)
p2582
F1289489221.586041
S'404 Not Found'
p2583
tp2584
a(VM9 (Russia)
p2585
F1289527315.4621069
S'404 Not Found'
p2586
tp2587
a(VM9 (Russia)
p2588
F1289613739.6566551
S'404 Not Found'
p2589
tp2590
a(VM9 (Russia)
p2591
F1289700131.8668489
S'404 Not Found'
p2592
tp2593
a(VM9 (Russia)
p2594
F1289786526.575418
S'404 Not Found'
p2595
tp2596
a(VM9 (Russia)
p2597
F1289872927.3782201
S'404 Not Found'
p2598
tp2599
asVhttp://www.lcd.org.uk/events/hitch/
p2600
(lp2601
(g2192
F1289489212.4277821
S'404 Not Found'
p2602
tp2603
a(g2195
F1289527314.804091
S'404 Not Found'
p2604
tp2605
a(g2198
F1289613737.8807459
S'404 Not Found'
p2606
tp2607
a(g2201
F1289700130.7334509
S'404 Not Found'
p2608
tp2609
a(g2204
F1289786522.6197751
S'404 Not Found'
p2610
tp2611
a(g2207
F1289872920.6257589
S'404 Not Found'
p2612
tp2613
a(g2210
F1289959317.643702
S'404 Not Found'
p2614
tp2615
a(g2213
F1290045703.424906
S'404 Not Found'
p2616
tp2617
a(g2216
F1290132192.7447419
S'404 Not Found'
p2618
tp2619
asVhttp://www.ibrr.org/forum/
p2620
(lp2621
(VTrain hopping
p2622
F1289489247.835676
S'404 Not Found'
p2623
tp2624
a(VTrain hopping
p2625
F1289527331.4705009
S'404 Not Found'
p2626
tp2627
a(VTrain hopping
p2628
F1289613762.7520051
S'404 Not Found'
p2629
tp2630
a(VTrain hopping
p2631
F1289700143.310797
S'404 Not Found'
p2632
tp2633
a(VTrain hopping
p2634
F1289786536.983042
S'404 Not Found'
p2635
tp2636
a(VTrain hopping
p2637
F1289872942.2807729
S'404 Not Found'
p2638
tp2639
a(VTrain hopping
p2640
F1289959330.446713
S'404 Not Found'
p2641
tp2642
a(VTrain hopping
p2643
F1290045718.1951649
S'404 Not Found'
p2644
tp2645
asVhttp://www.couchsurfing.com/people/garthelgard
p2646
(lp2647
(g636
F1289489233.180943
S'404 Not Found'
p2648
tp2649
a(g639
F1289527320.3639951
S'404 Not Found'
p2650
tp2651
a(g642
F1289613746.3741519
S'404 Not Found'
p2652
tp2653
a(g645
F1289700135.5516231
S'404 Not Found'
p2654
tp2655
a(g648
F1289786528.0673101
S'404 Not Found'
p2656
tp2657
a(g651
F1289872928.4749501
S'404 Not Found'
p2658
tp2659
a(g654
F1289959320.8666029
S'404 Not Found'
p2660
tp2661
a(g657
F1290045707.0903809
S'404 Not Found'
p2662
tp2663
as.