(dp0
Vhttp://www.couchsurfing.com/people/mxnnx
p1
(lp2
(VDicas boas
p3
F1289489480.7130489
S'404 Not Found'
p4
tp5
a(VDicas boas
p6
F1289527598.5401101
S'404 Not Found'
p7
tp8
a(VDicas boas
p9
F1289614005.1215079
S'404 Not Found'
p10
tp11
a(VDicas boas
p12
F1289700440.370887
S'404 Not Found'
p13
tp14
a(VDicas boas
p15
F1289786764.1541469
S'404 Not Found'
p16
tp17
a(VDicas boas
p18
F1289873240.1787081
S'404 Not Found'
p19
tp20
a(VDicas boas
p21
F1289959608.7260921
S'404 Not Found'
p22
tp23
a(VDicas boas
p24
F1290045928.14377
S'404 Not Found'
p25
tp26
a(VDicas boas
p27
F1290132646.2934289
S'404 Not Found'
p28
tp29
a(VDicas boas
p30
F1290219101.6472149
S'404 Not Found'
p31
tp32
a(VDicas boas
p33
F1290305459.7042251
S'404 Not Found'
p34
tp35
asVhttp://http://www.ptla.cl/
p36
(lp37
(VChile
p38
F1289489478.2314091
VHTTP Error: InvalidURL
p39
tp40
a(VChile
p41
F1289527597.5790811
VHTTP Error: InvalidURL
p42
tp43
a(VChile
p44
F1289614004.1649311
VHTTP Error: InvalidURL
p45
tp46
a(VChile
p47
F1289700439.409193
VHTTP Error: InvalidURL
p48
tp49
a(VChile
p50
F1289786763.1503
VHTTP Error: InvalidURL
p51
tp52
a(VChile
p53
F1289873239.145211
VHTTP Error: InvalidURL
p54
tp55
a(VChile
p56
F1289959607.733036
VHTTP Error: InvalidURL
p57
tp58
a(VChile
p59
F1290045927.194391
VHTTP Error: InvalidURL
p60
tp61
a(VChile
p62
F1290132645.214205
VHTTP Error: InvalidURL
p63
tp64
a(VChile
p65
F1290219100.682797
VHTTP Error: InvalidURL
p66
tp67
a(VChile
p68
F1290305458.704253
VHTTP Error: InvalidURL
p69
tp70
asVhttp://www.autostopargentina.com.ar/inicio.php
p71
(lp72
(VArgentina
p73
F1289489479.2522199
S'404 Not Found'
p74
tp75
a(VArgentina
p76
F1289527598.6073329
S'404 Not Found'
p77
tp78
a(VArgentina
p79
F1289614005.1910951
S'404 Not Found'
p80
tp81
a(VArgentina
p82
F1289700440.4347301
S'404 Not Found'
p83
tp84
a(VArgentina
p85
F1289786764.175904
S'404 Not Found'
p86
tp87
a(VArgentina
p88
F1289873240.2161641
S'404 Not Found'
p89
tp90
a(VArgentina
p91
F1289959608.7437611
S'404 Not Found'
p92
tp93
a(VArgentina
p94
F1290045928.216059
S'404 Not Found'
p95
tp96
a(VArgentina
p97
F1290132646.6505849
S'404 Not Found'
p98
tp99
asVhttp://bewelcome.org
p100
(lp101
(g24
F1290045927.4747391
VSocket Error: 'Connection refused'
p102
tp103
a(g27
F1290132646.293206
VSocket Error: 'Connection refused'
p104
tp105
a(g30
F1290219101.0865741
VSocket Error: 'Connection refused'
p106
tp107
a(g33
F1290305459.1494949
VSocket Error: 'Connection refused'
p108
tp109
as.